 two_tanks_sfun

 Timestamp is 531515a1 (Tue Mar 04 00:52:01 2014)

 Preferred load address is 0000000180000000

 Start         Length     Name                   Class
 0001:00000000 00014b24H .text                   CODE
 0001:00014b30 00000092H .text$x                 CODE
 0002:00000000 00000470H .idata$5                DATA
 0002:00000470 00000008H .CRT$XCA                DATA
 0002:00000478 00000008H .CRT$XCZ                DATA
 0002:00000480 00000008H .CRT$XIA                DATA
 0002:00000488 00000008H .CRT$XIAA               DATA
 0002:00000490 00000008H .CRT$XIZ                DATA
 0002:000004a0 0000248cH .rdata                  DATA
 0002:00002930 00000008H .rtc$IAA                DATA
 0002:00002938 00000008H .rtc$IZZ                DATA
 0002:00002940 00000008H .rtc$TAA                DATA
 0002:00002948 00000008H .rtc$TZZ                DATA
 0002:00002950 0000167cH .xdata                  DATA
 0002:00003fcc 0000008cH .idata$2                DATA
 0002:00004058 00000014H .idata$3                DATA
 0002:00004070 00000470H .idata$4                DATA
 0002:000044e0 00000a7eH .idata$6                DATA
 0002:00004f60 00000054H .edata                  DATA
 0003:00000000 00001498H .data                   DATA
 0003:000014a0 000017e0H .bss                    DATA
 0004:00000000 000012d8H .pdata                  DATA

  Address         Publics by Value              Rva+Base               Lib:Object

 0000:00000000       ___safe_se_handler_table   0000000000000000     <absolute>
 0000:00000000       ___safe_se_handler_count   0000000000000000     <absolute>
 0000:00000000       __ImageBase                0000000180000000     <linker-defined>
 0001:00000000       two_tanks_initializer      0000000180001000 f   two_tanks_sfun.obj
 0001:00000010       two_tanks_terminator       0000000180001010 f   two_tanks_sfun.obj
 0001:00000020       sf_two_tanks_method_dispatcher 0000000180001020 f   two_tanks_sfun.obj
 0001:00000070       sf_two_tanks_process_check_sum_call 0000000180001070 f   two_tanks_sfun.obj
 0001:00000480       sf_two_tanks_autoinheritance_info 0000000180001480 f   two_tanks_sfun.obj
 0001:000005f0       sf_two_tanks_get_eml_resolved_functions_info 00000001800015f0 f   two_tanks_sfun.obj
 0001:00000720       sf_two_tanks_third_party_uses_info 0000000180001720 f   two_tanks_sfun.obj
 0001:00000870       sf_two_tanks_updateBuildInfo_args_info 0000000180001870 f   two_tanks_sfun.obj
 0001:000009c0       two_tanks_register_exported_symbols 00000001800019c0 f   two_tanks_sfun.obj
 0001:000009d0       load_two_tanks_optimization_info 00000001800019d0 f   two_tanks_sfun.obj
 0001:00000a20       unload_two_tanks_optimization_info 0000000180001a20 f   two_tanks_sfun.obj
 0001:00000a50       sf_c1_two_tanks_get_eml_resolved_functions_info 0000000180001a50 f   c1_two_tanks.obj
 0001:00000ad0       sf_c1_two_tanks_get_check_sum 0000000180001ad0 f   c1_two_tanks.obj
 0001:00000b50       sf_c1_two_tanks_get_autoinheritance_info 0000000180001b50 f   c1_two_tanks.obj
 0001:00000f30       sf_c1_two_tanks_third_party_uses_info 0000000180001f30 f   c1_two_tanks.obj
 0001:00000f60       sf_c1_two_tanks_updateBuildInfo_args_info 0000000180001f60 f   c1_two_tanks.obj
 0001:00000f90       sf_internal_get_sim_state_c1_two_tanks 0000000180001f90 f   c1_two_tanks.obj
 0001:000014c0       sf_internal_set_sim_state_c1_two_tanks 00000001800024c0 f   c1_two_tanks.obj
 0001:00001bf0       c1_two_tanks_method_dispatcher 0000000180002bf0 f   c1_two_tanks.obj
 0001:00002ee0       sf_process_check_sum_call  0000000180003ee0 f   two_tanks_sfun_registry.obj
 0001:00002f30       sf_process_autoinheritance_call 0000000180003f30 f   two_tanks_sfun_registry.obj
 0001:000030d0       sf_process_get_third_party_uses_info_call 00000001800040d0 f   two_tanks_sfun_registry.obj
 0001:00003270       sf_process_get_updateBuildInfo_args_info_call 0000000180004270 f   two_tanks_sfun_registry.obj
 0001:00003410       sf_process_get_eml_resolved_functions_info_call 0000000180004410 f   two_tanks_sfun_registry.obj
 0001:00003590       sf_mex_unlock_call         0000000180004590 f   two_tanks_sfun_registry.obj
 0001:00003640       sf_machine_global_initializer_called 0000000180004640 f   two_tanks_sfun_registry.obj
 0001:00003670       sf_machine_global_method_dispatcher 0000000180004670 f   two_tanks_sfun_registry.obj
 0001:000036d0       sf_machine_global_terminator 00000001800046d0 f   two_tanks_sfun_registry.obj
 0001:00003700       sf_register_machine_exported_symbols 0000000180004700 f   two_tanks_sfun_registry.obj
 0001:00003720       callCustomFcn              0000000180004720 f   two_tanks_sfun_registry.obj
 0001:00003730       sf_machine_global_initializer 0000000180004730 f   two_tanks_sfun_registry.obj
 0001:00003790       _ssSetStateAbsTol          0000000180004790 f   two_tanks_sfun_registry.obj
 0001:00003870       _ssGetAbsTol               0000000180004870 f   two_tanks_sfun_registry.obj
 0001:000038e0       _ssSetInputPortMatrixDimensions 00000001800048e0 f   two_tanks_sfun_registry.obj
 0001:000039f0       _ssSetOutputPortMatrixDimensions 00000001800049f0 f   two_tanks_sfun_registry.obj
 0001:00003b00       _ssSetInputPortVectorDimension 0000000180004b00 f   two_tanks_sfun_registry.obj
 0001:00003bd0       _ssSetOutputPortVectorDimension 0000000180004bd0 f   two_tanks_sfun_registry.obj
 0001:00003ca0       ssIsRunTimeParamTunable    0000000180004ca0 f   two_tanks_sfun_registry.obj
 0001:00003d10       ssGetSFuncBlockHandle      0000000180004d10 f   two_tanks_sfun_registry.obj
 0001:00003d80       _ssGetCurrentInputPortWidth 0000000180004d80 f   two_tanks_sfun_registry.obj
 0001:00003ea0       _ssGetCurrentOutputPortWidth 0000000180004ea0 f   two_tanks_sfun_registry.obj
 0001:00003fc0       _ssGetCallSystemNumFcnCallDestinations 0000000180004fc0 f   two_tanks_sfun_registry.obj
 0001:00004030       ssWarning                  0000000180005030 f   two_tanks_sfun_registry.obj
 0001:00004140       ssGetIsZeroCrossControlDisabled 0000000180005140 f   two_tanks_sfun_registry.obj
 0001:000041b0       ssSetIsInputPortUsedForContZcSignal 00000001800051b0 f   two_tanks_sfun_registry.obj
 0001:00004220       ssSetZcSignalIsZcElementDisc 0000000180005220 f   two_tanks_sfun_registry.obj
 0001:000042d0       ssSetZcSignalName          00000001800052d0 f   two_tanks_sfun_registry.obj
 0001:00004340       ssSetZcSignalWidth         0000000180005340 f   two_tanks_sfun_registry.obj
 0001:000043b0       ssSetZcSignalZcEventType   00000001800053b0 f   two_tanks_sfun_registry.obj
 0001:00004420       ssSetZcSignalType          0000000180005420 f   two_tanks_sfun_registry.obj
 0001:00004490       ssSetZcSignalZcTol         0000000180005490 f   two_tanks_sfun_registry.obj
 0001:00004500       ssSetZcSignalNeedsEventNotification 0000000180005500 f   two_tanks_sfun_registry.obj
 0001:00004570       ssCreateAndAddZcSignalInfo 0000000180005570 f   two_tanks_sfun_registry.obj
 0001:000045e0       ssCloneAndAddZcSignalInfo  00000001800055e0 f   two_tanks_sfun_registry.obj
 0001:00004650       ssGetNumZcSignals          0000000180005650 f   two_tanks_sfun_registry.obj
 0001:000046c0       ssGetZcSignalVector        00000001800056c0 f   two_tanks_sfun_registry.obj
 0001:00004730       ssGetZcSignalZcEvents      0000000180005730 f   two_tanks_sfun_registry.obj
 0001:000047a0       ssGetZcSignalName          00000001800057a0 f   two_tanks_sfun_registry.obj
 0001:00004810       ssGetZcSignalWidth         0000000180005810 f   two_tanks_sfun_registry.obj
 0001:00004880       ssGetZcSignalZcEventType   0000000180005880 f   two_tanks_sfun_registry.obj
 0001:000048f0       ssGetZcSignalType          00000001800058f0 f   two_tanks_sfun_registry.obj
 0001:00004960       ssGetZcSignalZcTol         0000000180005960 f   two_tanks_sfun_registry.obj
 0001:000049e0       ssGetZcSignalNeedsEventNotification 00000001800059e0 f   two_tanks_sfun_registry.obj
 0001:00004a50       ssGetZcSignalIsZcElementDisc 0000000180005a50 f   two_tanks_sfun_registry.obj
 0001:00004af0       ssGetIsInputPortElementContinuous 0000000180005af0 f   two_tanks_sfun_registry.obj
 0001:00004b90       _ssGetInputPortSignalPtrsFcn 0000000180005b90 f   two_tanks_sfun_registry.obj
 0001:00004e50       _ssGetInputPortSignalFcn   0000000180005e50 f   two_tanks_sfun_registry.obj
 0001:00005070       _ssSetInputPortDirectFeedThroughFcn 0000000180006070 f   two_tanks_sfun_registry.obj
 0001:000051d0       _ssSetInputPortReusableFcn 00000001800061d0 f   two_tanks_sfun_registry.obj
 0001:000052c0       _ssSetOutputPortReusableFcn 00000001800062c0 f   two_tanks_sfun_registry.obj
 0001:000053a0       ssGetDTypeIdFromMxArray    00000001800063a0 f   two_tanks_sfun_registry.obj
 0001:000054c0       ssWriteRTWStr              00000001800064c0 f   two_tanks_sfun_registry.obj
 0001:00005520       ssWriteRTWMxVectParam      0000000180006520 f   two_tanks_sfun_registry.obj
 0001:00005580       ssWriteRTWMx2dMatParam     0000000180006580 f   two_tanks_sfun_registry.obj
 0001:00005600       ssWriteRTWNameValuePair    0000000180006600 f   two_tanks_sfun_registry.obj
 0001:00005af0       ssWriteRTWParameters       0000000180006af0 f   two_tanks_sfun_registry.obj
 0001:000060f0       ssWriteRTWParamSettings    00000001800070f0 f   two_tanks_sfun_registry.obj
 0001:000067c0       ssWriteRTWWorkVect         00000001800077c0 f   two_tanks_sfun_registry.obj
 0001:00006cc0       mexFunction                0000000180007cc0 f   two_tanks_sfun_registry.obj
 0001:000089a0       ProcessMexSfunctionEveryCall 00000001800099a0 f   two_tanks_sfun_registry.obj
 0001:00008e40       sim_mode_is_rtw_gen        0000000180009e40 f   sfc_mex:sfc_sf.obj
 0001:00008e70       sim_mode_is_external       0000000180009e70 f   sfc_mex:sfc_sf.obj
 0001:00008e80       sim_mode_is_modelref_sim   0000000180009e80 f   sfc_mex:sfc_sf.obj
 0001:00008ea0       mdlInitializeSizes         0000000180009ea0 f   sfc_mex:sfc_sf.obj
 0001:00008ec0       mdlInitializeSampleTimes   0000000180009ec0 f   sfc_mex:sfc_sf.obj
 0001:00008f00       mdlZeroCrossings           0000000180009f00 f   sfc_mex:sfc_sf.obj
 0001:00008fe0       mdlDerivatives             0000000180009fe0 f   sfc_mex:sfc_sf.obj
 0001:00009090       mdl_initialize_conditions_processing 000000018000a090 f   sfc_mex:sfc_sf.obj
 0001:000090c0       mdlInitializeConditions    000000018000a0c0 f   sfc_mex:sfc_sf.obj
 0001:00009170       mdlGetSimState             000000018000a170 f   sfc_mex:sfc_sf.obj
 0001:00009180       mdlSetSimState             000000018000a180 f   sfc_mex:sfc_sf.obj
 0001:00009190       mdl_ext_mode_exec_processing 000000018000a190 f   sfc_mex:sfc_sf.obj
 0001:000091b0       mdlExtModeExec             000000018000a1b0 f   sfc_mex:sfc_sf.obj
 0001:00009340       mdlTerminate               000000018000a340 f   sfc_mex:sfc_sf.obj
 0001:000093b0       mdlRTW                     000000018000a3b0 f   sfc_mex:sfc_sf.obj
 0001:000093e0       mdlSetWorkWidths           000000018000a3e0 f   sfc_mex:sfc_sf.obj
 0001:000093f0       mdlProcessParameters       000000018000a3f0 f   sfc_mex:sfc_sf.obj
 0001:00009400       mdl_start_processing       000000018000a400 f   sfc_mex:sfc_sf.obj
 0001:00009460       mdlStart                   000000018000a460 f   sfc_mex:sfc_sf.obj
 0001:00009570       mdlEnable                  000000018000a570 f   sfc_mex:sfc_sf.obj
 0001:00009640       mdlDisable                 000000018000a640 f   sfc_mex:sfc_sf.obj
 0001:000096f0       sf_get_chart_instance_ptr  000000018000a6f0 f   sfc_mex:sfc_sf.obj
 0001:00009710       sf_load_rtw_optimization_info 000000018000a710 f   sfc_mex:sfc_sf.obj
 0001:000097e0       sf_update_buildInfo        000000018000a7e0 f   sfc_mex:sfc_sf.obj
 0001:000098e0       sf_rtw_info_uint_prop      000000018000a8e0 f   sfc_mex:sfc_sf.obj
 0001:00009a20       sf_is_chart_inlinable      000000018000aa20 f   sfc_mex:sfc_sf.obj
 0001:00009a40       sf_mark_output_events_with_multiple_callers 000000018000aa40 f   sfc_mex:sfc_sf.obj
 0001:00009bd0       sf_mark_chart_reusable_outputs 000000018000abd0 f   sfc_mex:sfc_sf.obj
 0001:00009e30       sf_mark_chart_expressionable_inputs 000000018000ae30 f   sfc_mex:sfc_sf.obj
 0001:0000a090       sf_get_subchart_simstruct  000000018000b090 f   sfc_mex:sfc_sf.obj
 0001:0000a0e0       sf_get_fixpt_data_type_id  000000018000b0e0 f   sfc_mex:sfc_sf.obj
 0001:0000a120       sf_get_enum_data_type_id   000000018000b120 f   sfc_mex:sfc_sf.obj
 0001:0000a160       sf_get_param_data_type_id  000000018000b160 f   sfc_mex:sfc_sf.obj
 0001:0000a190       sf_mex_listen_for_ctrl_c_force 000000018000b190 f   sfc_mex:sfc_sf.obj
 0001:0000a2a0       sf_mex_draw_now            000000018000b2a0 f   sfc_mex:sfc_sf.obj
 0001:0000a2e0       sf_mex_set_debugger_sim_status_listener_fcn 000000018000b2e0 f   sfc_mex:sfc_sf.obj
 0001:0000a2f0       sf_mex_listen_for_ctrl_c   000000018000b2f0 f   sfc_mex:sfc_sf.obj
 0001:0000a390       sf_mex_get_sfun_param      000000018000b390 f   sfc_mex:sfc_sf.obj
 0001:0000a3e0       sf_get_runtime_param_data  000000018000b3e0 f   sfc_mex:sfc_sf.obj
 0001:0000a420       sf_call_output_fcn_call    000000018000b420 f   sfc_mex:sfc_sf.obj
 0001:0000a560       sf_call_output_fcn_enable  000000018000b560 f   sfc_mex:sfc_sf.obj
 0001:0000a5f0       sf_call_output_fcn_disable 000000018000b5f0 f   sfc_mex:sfc_sf.obj
 0001:0000a680       sf_clear_rtw_identifier    000000018000b680 f   sfc_mex:sfc_sf.obj
 0001:0000ae60       sf_set_encoded_dwork_info  000000018000be60 f   sfc_mex:sfc_sf.obj
 0001:0000aeb0       sf_get_dwork_info_from_mat_file 000000018000beb0 f   sfc_mex:sfc_sf.obj
 0001:0000b070       sf_set_rtw_dwork_info      000000018000c070 f   sfc_mex:sfc_sf.obj
 0001:0000b1e0       mdlOutputs                 000000018000c1e0 f   sfc_mex:sfc_sf.obj
 0001:0000b3d0       sf_mex_mx_is_numeric       000000018000c3d0 f   sfc_mex:sfc_mex.obj
 0001:0000b410       strcmp_ignore_ws           000000018000c410 f   sfc_mex:sfc_mex.obj
 0001:0000b550       sf_mex_duplicatearraysafe  000000018000c550 f   sfc_mex:sfc_mex.obj
 0001:0000b6b0       sf_set_error_debugger_context_message_fcn 000000018000c6b0 f   sfc_mex:sfc_mex.obj
 0001:0000b6c0       sf_set_debugger_matlab_error_fcn 000000018000c6c0 f   sfc_mex:sfc_mex.obj
 0001:0000b700       sf_set_error_prefix_string 000000018000c700 f   sfc_mex:sfc_mex.obj
 0001:0000b730       sf_get_error_prefix_string 000000018000c730 f   sfc_mex:sfc_mex.obj
 0001:0000b740       sf_mex_enter_parallel_region 000000018000c740 f   sfc_mex:sfc_mex.obj
 0001:0000b750       sf_mex_exit_parallel_region 000000018000c750 f   sfc_mex:sfc_mex.obj
 0001:0000b760       sf_get_current_jmp_buf_ptr 000000018000c760 f   sfc_mex:sfc_mex.obj
 0001:0000b770       sf_set_current_jmp_buf_ptr 000000018000c770 f   sfc_mex:sfc_mex.obj
 0001:0000b780       sf_mex_set_halt_simulation 000000018000c780 f   sfc_mex:sfc_mex.obj
 0001:0000b790       sf_mex_get_halt_simulation 000000018000c790 f   sfc_mex:sfc_mex.obj
 0001:0000b7a0       sf_mex_clear_error_message 000000018000c7a0 f   sfc_mex:sfc_mex.obj
 0001:0000b7c0       sf_mex_get_error_message_for_read 000000018000c7c0 f   sfc_mex:sfc_mex.obj
 0001:0000b7d0       sf_mex_get_error_message_buffer_length 000000018000c7d0 f   sfc_mex:sfc_mex.obj
 0001:0000b890       sf_mex_warning_message     000000018000c890 f   sfc_mex:sfc_mex.obj
 0001:0000b8e0       sf_mex_v_errbuf_createf    000000018000c8e0 f   sfc_mex:sfc_mex.obj
 0001:0000b8f0       sf_mex_errbuf_createf      000000018000c8f0 f   sfc_mex:sfc_mex.obj
 0001:0000b920       sf_mex_v_errbuf_catf       000000018000c920 f   sfc_mex:sfc_mex.obj
 0001:0000b960       sf_mex_errbuf_catf         000000018000c960 f   sfc_mex:sfc_mex.obj
 0001:0000b9b0       sf_mex_errbuf_copy         000000018000c9b0 f   sfc_mex:sfc_mex.obj
 0001:0000b9c0       sf_mex_errbuf_clear        000000018000c9c0 f   sfc_mex:sfc_mex.obj
 0001:0000b9d0       sf_mex_errbuf_isempty      000000018000c9d0 f   sfc_mex:sfc_mex.obj
 0001:0000bad0       sf_mex_set_error_status    000000018000cad0 f   sfc_mex:sfc_mex.obj
 0001:0000bb20       sf_mex_error_direct_call   000000018000cb20 f   sfc_mex:sfc_mex.obj
 0001:0000bb40       sf_mex_error_message_no_long_jump 000000018000cb40 f   sfc_mex:sfc_mex.obj
 0001:0000bb60       sf_mex_long_jump_on_error  000000018000cb60 f   sfc_mex:sfc_mex.obj
 0001:0000bb90       sf_mex_call_matlab         000000018000cb90 f   sfc_mex:sfc_mex.obj
 0001:0000bc70       sf_mex_check_builtin       000000018000cc70 f   sfc_mex:sfc_mex.obj
 0001:0000bd10       sf_mex_check_builtin_vs    000000018000cd10 f   sfc_mex:sfc_mex.obj
 0001:0000bdd0       sf_mex_check_enum          000000018000cdd0 f   sfc_mex:sfc_mex.obj
 0001:0000be50       sf_mex_create_enum         000000018000ce50 f   sfc_mex:sfc_mex.obj
 0001:0000bec0       sf_mex_get_enum_element    000000018000cec0 f   sfc_mex:sfc_mex.obj
 0001:0000bed0       sf_mex_createcellarray     000000018000ced0 f   sfc_mex:sfc_mex.obj
 0001:0000bee0       sf_mex_setcell             000000018000cee0 f   sfc_mex:sfc_mex.obj
 0001:0000bef0       sf_mex_getcell             000000018000cef0 f   sfc_mex:sfc_mex.obj
 0001:0000bf00       sf_mex_dup                 000000018000cf00 f   sfc_mex:sfc_mex.obj
 0001:0000bf20       sf_mex_assign              000000018000cf20 f   sfc_mex:sfc_mex.obj
 0001:0000bfa0       sf_mex_destroy             000000018000cfa0 f   sfc_mex:sfc_mex.obj
 0001:0000bfd0       mx_array_has_fi_type       000000018000cfd0 f   sfc_mex:sfc_mex.obj
 0001:0000c000       sf_mex_convert_from_fi     000000018000d000 f   sfc_mex:sfc_mex.obj
 0001:0000c1e0       sf_mex_convert_to_double   000000018000d1e0 f   sfc_mex:sfc_mex.obj
 0001:0000c2f0       sf_mex_import_fi_vs        000000018000d2f0 f   sfc_mex:sfc_mex.obj
 0001:0000c500       sf_matrix_matrix_index_ok  000000018000d500 f   sfc_mex:sfc_mex.obj
 0001:0000c590       sf_vector_vector_index_ok  000000018000d590 f   sfc_mex:sfc_mex.obj
 0001:0000c5c0       ssGetCurrentInputPortDimensions_wrapper 000000018000d5c0 f   sfc_mex:sfc_mex.obj
 0001:0000c5e0       ssGetCurrentOutputPortDimensions_wrapper 000000018000d5e0 f   sfc_mex:sfc_mex.obj
 0001:0000c600       sf_mex_emlrt_context_is_debug_mode 000000018000d600 f   sfc_mex:sfc_mex.obj
 0001:0000c610       sf_mex_emlrt_context_set_debug_mode 000000018000d610 f   sfc_mex:sfc_mex.obj
 0001:0000c620       sf_mex_emlrtNameCapturePostProcessR2012a 000000018000d620 f   sfc_mex:sfc_mex.obj
 0001:0000c690       sf_clear_error_manager_info 000000018000d690 f   sfc_mex:sfc_mex.obj
 0001:0000c6f0       sf_mex_stop_simulation_abruptly_wo_error 000000018000d6f0 f   sfc_mex:sfc_mex.obj
 0001:0000c730       sf_mex_error_message       000000018000d730 f   sfc_mex:sfc_mex.obj
 0001:0000c7a0       sf_react_to_error_in_matlab_call 000000018000d7a0 f   sfc_mex:sfc_mex.obj
 0001:0000c7d0       sf_mex_addfield            000000018000d7d0 f   sfc_mex:sfc_mex.obj
 0001:0000c870       sf_mex_getfield            000000018000d870 f   sfc_mex:sfc_mex.obj
 0001:0000cbe0       sf_mex_check_class         000000018000dbe0 f   sfc_mex:sfc_mex.obj
 0001:0000ccd0       sf_mex_is_real             000000018000dcd0 f   sfc_mex:sfc_mex.obj
 0001:0000d480       sf_mex_decode_encoded_mx_cell_array 000000018000e480 f   sfc_mex:sfc_mex.obj
 0001:0000d6f0       sf_mex_decode_encoded_mx_struct_array 000000018000e6f0 f   sfc_mex:sfc_mex.obj
 0001:0000d9c0       lw_bounds_error            000000018000e9c0 f   sfc_mex:sfc_mex.obj
 0001:0000d9d0       sf_mex_lw_bounds_check     000000018000e9d0 f   sfc_mex:sfc_mex.obj
 0001:0000da00       sf_mex_lw_bounds_check_int64 000000018000ea00 f   sfc_mex:sfc_mex.obj
 0001:0000da40       sf_mex_lw_size_eq_check_1d 000000018000ea40 f   sfc_mex:sfc_mex.obj
 0001:0000da60       sf_mex_lw_size_eq_check_nd 000000018000ea60 f   sfc_mex:sfc_mex.obj
 0001:0000dc40       sf_mex_lw_dim_size_eq_check 000000018000ec40 f   sfc_mex:sfc_mex.obj
 0001:0000dc70       sf_mex_lw_dim_size_geq_check 000000018000ec70 f   sfc_mex:sfc_mex.obj
 0001:0000dca0       sf_mex_lw_sub_assign_size_check_nd 000000018000eca0 f   sfc_mex:sfc_mex.obj
 0001:0000de50       sf_mex_lw_runtime_error_msgid 000000018000ee50 f   sfc_mex:sfc_mex.obj
 0001:0000df40       sf_mex_lw_matrix_matrix_index_check 000000018000ef40 f   sfc_mex:sfc_mex.obj
 0001:0000df60       sf_mex_lw_vector_vector_index_check 000000018000ef60 f   sfc_mex:sfc_mex.obj
 0001:0000dfa0       sf_mex_lw_for_loop_vector_check 000000018000efa0 f   sfc_mex:sfc_mex.obj
 0001:0000e020       sf_mex_lw_non_negative_check 000000018000f020 f   sfc_mex:sfc_mex.obj
 0001:0000e060       sf_mex_overflow_error      000000018000f060 f   sfc_mex:sfc_mex.obj
 0001:0000e070       sf_mex_dividebyzero_error  000000018000f070 f   sfc_mex:sfc_mex.obj
 0001:0000e080       sf_mex_unsafe_enum_error   000000018000f080 f   sfc_mex:sfc_mex.obj
 0001:0000e090       sf_emlrtErrHandler         000000018000f090 f   sfc_mex:sfc_mex.obj
 0001:0000e150       sf_mex_size_one_check      000000018000f150 f   sfc_mex:sfc_mex.obj
 0001:0000e170       sf_mex_printf              000000018000f170 f   sfc_mex:sfc_mex.obj
 0001:0000e3c0       sf_mex_check_size          000000018000f3c0 f   sfc_mex:sfc_mex.obj
 0001:0000e700       sf_mex_check_struct        000000018000f700 f   sfc_mex:sfc_mex.obj
 0001:0000e920       sf_mex_check_struct_vs     000000018000f920 f   sfc_mex:sfc_mex.obj
 0001:0000e9b0       sf_mex_check_fi            000000018000f9b0 f   sfc_mex:sfc_mex.obj
 0001:0000eb40       sf_mex_check_fi_vs         000000018000fb40 f   sfc_mex:sfc_mex.obj
 0001:0000ebe0       sf_echo_expression         000000018000fbe0 f   sfc_mex:sfc_mex.obj
 0001:0000ec40       sf_assertion_failed        000000018000fc40 f   sfc_mex:sfc_mex.obj
 0001:0000ef10       sf_mex_evalin              000000018000ff10 f   sfc_mex:sfc_mex.obj
 0001:0000f260       sf_mex_export              0000000180010260 f   sfc_mex:sfc_mex.obj
 0001:0000f320       sf_mex_get_ml_var_no_error 0000000180010320 f   sfc_mex:sfc_mex.obj
 0001:0000f560       sf_mex_get_ml_var          0000000180010560 f   sfc_mex:sfc_mex.obj
 0001:0000fa60       ml_set_element_value_in_array 0000000180010a60 f   sfc_mex:sfc_mex.obj
 0001:000113d0       sf_mex_call_impl           00000001800123d0 f   sfc_mex:sfc_mex.obj
 0001:000117f0       sf_mex_call_debug          00000001800127f0 f   sfc_mex:sfc_mex.obj
 0001:00011820       sf_mex_call                0000000180012820 f   sfc_mex:sfc_mex.obj
 0001:00011f30       sf_mex_createstruct        0000000180012f30 f   sfc_mex:sfc_mex.obj
 0001:00012020       sf_mex_createstructarray   0000000180013020 f   sfc_mex:sfc_mex.obj
 0001:000120a0       sf_mex_get_mx_datatype_from_sf_datatype 00000001800130a0 f   sfc_mex:sfc_mex.obj
 0001:000123b0       sf_mex_ml_var_sub          00000001800133b0 f   sfc_mex:sfc_mex.obj
 0001:000125c0       sf_mex_ml_var_subsasgn     00000001800135c0 f   sfc_mex:sfc_mex.obj
 0001:00012980       sf_mex_sub                 0000000180013980 f   sfc_mex:sfc_mex.obj
 0001:00012bc0       sf_mex_subsasgn            0000000180013bc0 f   sfc_mex:sfc_mex.obj
 0001:00013030       sf_mex_create              0000000180014030 f   sfc_mex:sfc_mex.obj
 0001:000139a0       sf_mex_import_named        00000001800149a0 f   sfc_mex:sfc_mex.obj
 0001:00013a00       sf_mex_import              0000000180014a00 f   sfc_mex:sfc_mex.obj
 0001:00013a50       sf_mex_import_vs           0000000180014a50 f   sfc_mex:sfc_mex.obj
 0001:00013b60       sf_mex_lower_fixpt_mx_array 0000000180014b60 f   sfc_mex:sfc_mex.obj
 0001:00013e6a       mxGetScalar                0000000180014e6a f   libmx:libmx.dll
 0001:00013e70       mxGetPr                    0000000180014e70 f   libmx:libmx.dll
 0001:00013e76       mxCreateDoubleMatrix_730   0000000180014e76 f   libmx:libmx.dll
 0001:00013e7c       mxGetString_730            0000000180014e7c f   libmx:libmx.dll
 0001:00013e82       mxIsChar                   0000000180014e82 f   libmx:libmx.dll
 0001:00013e88       mxDestroyArray             0000000180014e88 f   libmx:libmx.dll
 0001:00013e8e       mxDuplicateArray           0000000180014e8e f   libmx:libmx.dll
 0001:00013e94       mxCreateDoubleScalar       0000000180014e94 f   libmx:libmx.dll
 0001:00013e9a       mxSetField_730             0000000180014e9a f   libmx:libmx.dll
 0001:00013ea0       mxCreateString             0000000180014ea0 f   libmx:libmx.dll
 0001:00013ea6       mxCreateStructMatrix_730   0000000180014ea6 f   libmx:libmx.dll
 0001:00013eac       mxCreateCellMatrix_730     0000000180014eac f   libmx:libmx.dll
 0001:00013eb2       mxGetClassID               0000000180014eb2 f   libmx:libmx.dll
 0001:00013eb8       mxIsNumeric                0000000180014eb8 f   libmx:libmx.dll
 0001:00013ebe       mxIsComplex                0000000180014ebe f   libmx:libmx.dll
 0001:00013ec4       mxGetN                     0000000180014ec4 f   libmx:libmx.dll
 0001:00013eca       mxGetM                     0000000180014eca f   libmx:libmx.dll
 0001:00013ed0       mxCalloc                   0000000180014ed0 f   libmx:libmx.dll
 0001:00013ed6       mxGetString_700            0000000180014ed6 f   libmx:libmx.dll
 0001:00013edc       mxFree                     0000000180014edc f   libmx:libmx.dll
 0001:00013ee2       mxArrayToString            0000000180014ee2 f   libmx:libmx.dll
 0001:00013ee8       mxGetNumberOfElements      0000000180014ee8 f   libmx:libmx.dll
 0001:00013eee       mxGetField_700             0000000180014eee f   libmx:libmx.dll
 0001:00013ef4       mxSetFieldByNumber_700     0000000180014ef4 f   libmx:libmx.dll
 0001:00013efa       mxCreateStructArray_700    0000000180014efa f   libmx:libmx.dll
 0001:00013f00       mxGetData                  0000000180014f00 f   libmx:libmx.dll
 0001:00013f06       mxCreateNumericArray_700   0000000180014f06 f   libmx:libmx.dll
 0001:00013f0c       mxIsLogical                0000000180014f0c f   libmx:libmx.dll
 0001:00013f12       mxCreateDoubleMatrix_700   0000000180014f12 f   libmx:libmx.dll
 0001:00013f18       mxGetProperty_700          0000000180014f18 f   libmx:libmx.dll
 0001:00013f1e       mxCreateCellMatrix_700     0000000180014f1e f   libmx:libmx.dll
 0001:00013f24       mxSetCell_700              0000000180014f24 f   libmx:libmx.dll
 0001:00013f2a       mxGetCell_700              0000000180014f2a f   libmx:libmx.dll
 0001:00013f30       mxGetClassName             0000000180014f30 f   libmx:libmx.dll
 0001:00013f36       mxSetField_700             0000000180014f36 f   libmx:libmx.dll
 0001:00013f3c       mxAddField                 0000000180014f3c f   libmx:libmx.dll
 0001:00013f42       mxIsStruct                 0000000180014f42 f   libmx:libmx.dll
 0001:00013f48       mxIsA                      0000000180014f48 f   libmx:libmx.dll
 0001:00013f4e       mxIsClass                  0000000180014f4e f   libmx:libmx.dll
 0001:00013f54       mxGetLogicals              0000000180014f54 f   libmx:libmx.dll
 0001:00013f5a       mxIsSparse                 0000000180014f5a f   libmx:libmx.dll
 0001:00013f60       mxIsCell                   0000000180014f60 f   libmx:libmx.dll
 0001:00013f66       mxGetFieldByNumber_700     0000000180014f66 f   libmx:libmx.dll
 0001:00013f6c       mxGetFieldNameByNumber     0000000180014f6c f   libmx:libmx.dll
 0001:00013f72       mxGetNumberOfFields        0000000180014f72 f   libmx:libmx.dll
 0001:00013f78       mxCreateStructMatrix_700   0000000180014f78 f   libmx:libmx.dll
 0001:00013f7e       mxGetFieldNumber           0000000180014f7e f   libmx:libmx.dll
 0001:00013f84       mxIsNaN                    0000000180014f84 f   libmx:libmx.dll
 0001:00013f8a       mxIsEmpty                  0000000180014f8a f   libmx:libmx.dll
 0001:00013f90       mxGetImagData              0000000180014f90 f   libmx:libmx.dll
 0001:00013f96       mxArrayClassIDName         0000000180014f96 f   libmx:libmx.dll
 0001:00013f9c       mxCreateNumericMatrix_700  0000000180014f9c f   libmx:libmx.dll
 0001:00013fa2       mxCalcSingleSubscript_700  0000000180014fa2 f   libmx:libmx.dll
 0001:00013fa8       mxGetDimensions_700        0000000180014fa8 f   libmx:libmx.dll
 0001:00013fae       mxGetNumberOfDimensions_700 0000000180014fae f   libmx:libmx.dll
 0001:00013fb4       mxGetElementSize           0000000180014fb4 f   libmx:libmx.dll
 0001:00013fba       mxCreateStringFromNChars_700 0000000180014fba f   libmx:libmx.dll
 0001:00013fc0       mexMakeArrayPersistent     0000000180014fc0 f   libmex:libmex.dll
 0001:00013fc6       mexUnlock                  0000000180014fc6 f   libmex:libmex.dll
 0001:00013fcc       mexIsLocked                0000000180014fcc f   libmex:libmex.dll
 0001:00013fd2       mexWarnMsgTxt              0000000180014fd2 f   libmex:libmex.dll
 0001:00013fd8       mexCallMATLAB              0000000180014fd8 f   libmex:libmex.dll
 0001:00013fde       mexErrMsgTxt               0000000180014fde f   libmex:libmex.dll
 0001:00013fe4       mexLock                    0000000180014fe4 f   libmex:libmex.dll
 0001:00013fea       mexMakeMemoryPersistent    0000000180014fea f   libmex:libmex.dll
 0001:00013ff0       mexCallMATLABWithTrap      0000000180014ff0 f   libmex:libmex.dll
 0001:00013ff6       mexPutVariable             0000000180014ff6 f   libmex:libmex.dll
 0001:00013ffc       mexGetVariable             0000000180014ffc f   libmex:libmex.dll
 0001:00014002       ssRegisterDataTypeFxpFSlopeFixExpBias 0000000180015002 f   libfixedpoint:libfixedpoint.dll
 0001:00014008       ssRegisterDataTypeFxpScaledDouble 0000000180015008 f   libfixedpoint:libfixedpoint.dll
 0001:0001400e       utMalloc                   000000018001500e f   libut:libut.dll
 0001:00014014       utFree                     0000000180015014 f   libut:libut.dll
 0001:0001401a       utCPUtime                  000000018001501a f   libut:libut.dll
 0001:00014020       utVSNprintf                0000000180015020 f   libut:libut.dll
 0001:00014026       emlrtCreateRootTLS         0000000180015026 f   libemlrt:libemlrt.dll
 0001:0001402c       emlrtDestroyRootTLS        000000018001502c f   libemlrt:libemlrt.dll
 0001:00014032       emlrtCheckBuiltInR2012b    0000000180015032 f   libemlrt:libemlrt.dll
 0001:00014038       emlrtCheckVsBuiltInR2012b  0000000180015038 f   libemlrt:libemlrt.dll
 0001:0001403e       emlrtCheckEnumR2012b       000000018001503e f   libemlrt:libemlrt.dll
 0001:00014044       emlrtCreateEnumR2012b      0000000180015044 f   libemlrt:libemlrt.dll
 0001:0001404a       emlrtGetEnumElementR2009a  000000018001504a f   libemlrt:libemlrt.dll
 0001:00014050       emlrtCreateReference       0000000180015050 f   libemlrt:libemlrt.dll
 0001:00014056       emlrtImportVsFiArrayR2009b 0000000180015056 f   libemlrt:libemlrt.dll
 0001:0001405c       emlrtNameCapturePostProcessR2012a 000000018001505c f   libemlrt:libemlrt.dll
 0001:00014062       emlrtExtractMessageId      0000000180015062 f   libemlrt:libemlrt.dll
 0001:00014068       emlrtTranslateMessageIDtoLCPstring 0000000180015068 f   libemlrt:libemlrt.dll
 0001:0001406e       emlrtForLoopVectorIsValidR2011b 000000018001506e f   libemlrt:libemlrt.dll
 0001:00014074       emlrtTranslateUTF16MessagetoLCPstring 0000000180015074 f   libemlrt:libemlrt.dll
 0001:0001407a       emlrtGetEnumUnderlyingArrayR2009a 000000018001507a f   libemlrt:libemlrt.dll
 0001:00014080       emlrtIsEnumR2009a          0000000180015080 f   libemlrt:libemlrt.dll
 0001:00014086       emlrtInitCharArrayR2013a   0000000180015086 f   libemlrt:libemlrt.dll
 0001:0001408c       __GSHandlerCheckCommon     000000018001508c f   MSVCRT:gshandler.obj
 0001:000140f0       __GSHandlerCheck           00000001800150f0 f   MSVCRT:gshandler.obj
 0001:0001410e       strcmp                     000000018001510e f   MSVCRT:MSVCR100.dll
 0001:00014130       __security_check_cookie    0000000180015130 f   MSVCRT:amdsecgs.obj
 0001:00014150       memset                     0000000180015150 f   MSVCRT:MSVCR100.dll
 0001:00014156       free                       0000000180015156 f   MSVCRT:MSVCR100.dll
 0001:0001415c       sprintf                    000000018001515c f   MSVCRT:MSVCR100.dll
 0001:00014162       malloc                     0000000180015162 f   MSVCRT:MSVCR100.dll
 0001:00014168       strlen                     0000000180015168 f   MSVCRT:MSVCR100.dll
 0001:0001416e       strcat                     000000018001516e f   MSVCRT:MSVCR100.dll
 0001:00014174       memcpy                     0000000180015174 f   MSVCRT:MSVCR100.dll
 0001:0001417c       NtCurrentTeb               000000018001517c f i MSVCRT:crtdll.obj
 0001:000141e8       _CRT_INIT                  00000001800151e8 f   MSVCRT:crtdll.obj
 0001:00014580       _DllMainCRTStartup         0000000180015580 f   MSVCRT:crtdll.obj
 0001:000145be       _setjmp                    00000001800155be f   MSVCRT:MSVCR100.dll
 0001:000145c4       strncpy                    00000001800155c4 f   MSVCRT:MSVCR100.dll
 0001:000145e0       _alloca_probe              00000001800155e0     MSVCRT:chkstk.obj
 0001:000145e0       __chkstk                   00000001800155e0 f   MSVCRT:chkstk.obj
 0001:0001462e       longjmp                    000000018001562e f   MSVCRT:MSVCR100.dll
 0001:00014634       strncmp                    0000000180015634 f   MSVCRT:MSVCR100.dll
 0001:0001463a       ceil                       000000018001563a f   MSVCRT:MSVCR100.dll
 0001:00014640       strrchr                    0000000180015640 f   MSVCRT:MSVCR100.dll
 0001:00014648       __report_gsfailure         0000000180015648 f   MSVCRT:gs_report.obj
 0001:00014794       __clean_type_info_names    0000000180015794 f   MSVCRT:tncleanup.obj
 0001:000147a0       _onexit                    00000001800157a0 f   MSVCRT:atonexit.obj
 0001:00014850       atexit                     0000000180015850 f   MSVCRT:atonexit.obj
 0001:00014868       _RTC_Initialize            0000000180015868 f   MSVCRT:_initsect_.obj
 0001:000148a0       _RTC_Terminate             00000001800158a0 f   MSVCRT:_initsect_.obj
 0001:000148d8       _malloc_crt                00000001800158d8 f   MSVCRT:MSVCR100.dll
 0001:000148e0       _ValidateImageBase         00000001800158e0 f   MSVCRT:pesect.obj
 0001:00014910       _FindPESection             0000000180015910 f   MSVCRT:pesect.obj
 0001:00014960       _IsNonwritableInCurrentImage 0000000180015960 f   MSVCRT:pesect.obj
 0001:000149a2       _initterm                  00000001800159a2 f   MSVCRT:MSVCR100.dll
 0001:000149a8       _initterm_e                00000001800159a8 f   MSVCRT:MSVCR100.dll
 0001:000149ae       _encoded_null              00000001800159ae f   MSVCRT:MSVCR100.dll
 0001:000149b4       _amsg_exit                 00000001800159b4 f   MSVCRT:MSVCR100.dll
 0001:000149ba       __C_specific_handler       00000001800159ba f   MSVCRT:MSVCR100.dll
 0001:000149c0       __CppXcptFilter            00000001800159c0 f   MSVCRT:MSVCR100.dll
 0001:000149c8       DllMain                    00000001800159c8 f   MSVCRT:dllmain.obj
 0001:000149ec       __security_init_cookie     00000001800159ec f   MSVCRT:gs_support.obj
 0001:00014aa0       __crt_debugger_hook        0000000180015aa0 f   MSVCRT:MSVCR100.dll
 0001:00014aa6       __clean_type_info_names_internal 0000000180015aa6 f   MSVCRT:MSVCR100.dll
 0001:00014aac       _unlock                    0000000180015aac f   MSVCRT:MSVCR100.dll
 0001:00014ab2       __dllonexit                0000000180015ab2 f   MSVCRT:MSVCR100.dll
 0001:00014ab8       _lock                      0000000180015ab8 f   MSVCRT:MSVCR100.dll
 0001:00014abe       EncodePointer              0000000180015abe f   kernel32:KERNEL32.dll
 0001:00014ac4       DecodePointer              0000000180015ac4 f   kernel32:KERNEL32.dll
 0001:00014aca       Sleep                      0000000180015aca f   kernel32:KERNEL32.dll
 0001:00014ad0       TerminateProcess           0000000180015ad0 f   kernel32:KERNEL32.dll
 0001:00014ad6       GetCurrentProcess          0000000180015ad6 f   kernel32:KERNEL32.dll
 0001:00014adc       UnhandledExceptionFilter   0000000180015adc f   kernel32:KERNEL32.dll
 0001:00014ae2       SetUnhandledExceptionFilter 0000000180015ae2 f   kernel32:KERNEL32.dll
 0001:00014ae8       IsDebuggerPresent          0000000180015ae8 f   kernel32:KERNEL32.dll
 0001:00014aee       RtlVirtualUnwind           0000000180015aee f   kernel32:KERNEL32.dll
 0001:00014af4       RtlLookupFunctionEntry     0000000180015af4 f   kernel32:KERNEL32.dll
 0001:00014afa       RtlCaptureContext          0000000180015afa f   kernel32:KERNEL32.dll
 0001:00014b00       DisableThreadLibraryCalls  0000000180015b00 f   kernel32:KERNEL32.dll
 0001:00014b06       QueryPerformanceCounter    0000000180015b06 f   kernel32:KERNEL32.dll
 0001:00014b0c       GetTickCount               0000000180015b0c f   kernel32:KERNEL32.dll
 0001:00014b12       GetCurrentThreadId         0000000180015b12 f   kernel32:KERNEL32.dll
 0001:00014b18       GetCurrentProcessId        0000000180015b18 f   kernel32:KERNEL32.dll
 0001:00014b1e       GetSystemTimeAsFileTime    0000000180015b1e f   kernel32:KERNEL32.dll
 0002:00000000       __imp_GetSystemTimeAsFileTime 0000000180016000     kernel32:KERNEL32.dll
 0002:00000008       __imp_GetCurrentProcessId  0000000180016008     kernel32:KERNEL32.dll
 0002:00000010       __imp_GetCurrentThreadId   0000000180016010     kernel32:KERNEL32.dll
 0002:00000018       __imp_GetTickCount         0000000180016018     kernel32:KERNEL32.dll
 0002:00000020       __imp_QueryPerformanceCounter 0000000180016020     kernel32:KERNEL32.dll
 0002:00000028       __imp_DisableThreadLibraryCalls 0000000180016028     kernel32:KERNEL32.dll
 0002:00000030       __imp_RtlCaptureContext    0000000180016030     kernel32:KERNEL32.dll
 0002:00000038       __imp_RtlLookupFunctionEntry 0000000180016038     kernel32:KERNEL32.dll
 0002:00000040       __imp_RtlVirtualUnwind     0000000180016040     kernel32:KERNEL32.dll
 0002:00000048       __imp_IsDebuggerPresent    0000000180016048     kernel32:KERNEL32.dll
 0002:00000050       __imp_SetUnhandledExceptionFilter 0000000180016050     kernel32:KERNEL32.dll
 0002:00000058       __imp_UnhandledExceptionFilter 0000000180016058     kernel32:KERNEL32.dll
 0002:00000060       __imp_GetCurrentProcess    0000000180016060     kernel32:KERNEL32.dll
 0002:00000068       __imp_TerminateProcess     0000000180016068     kernel32:KERNEL32.dll
 0002:00000070       __imp_Sleep                0000000180016070     kernel32:KERNEL32.dll
 0002:00000078       __imp_DecodePointer        0000000180016078     kernel32:KERNEL32.dll
 0002:00000080       __imp_EncodePointer        0000000180016080     kernel32:KERNEL32.dll
 0002:00000088       \177KERNEL32_NULL_THUNK_DATA 0000000180016088     kernel32:KERNEL32.dll
 0002:00000090       __imp__onexit              0000000180016090     MSVCRT:MSVCR100.dll
 0002:00000098       __imp__lock                0000000180016098     MSVCRT:MSVCR100.dll
 0002:000000a0       __imp___dllonexit          00000001800160a0     MSVCRT:MSVCR100.dll
 0002:000000a8       __imp__unlock              00000001800160a8     MSVCRT:MSVCR100.dll
 0002:000000b0       __imp___clean_type_info_names_internal 00000001800160b0     MSVCRT:MSVCR100.dll
 0002:000000b8       __imp___crt_debugger_hook  00000001800160b8     MSVCRT:MSVCR100.dll
 0002:000000c0       __imp___CppXcptFilter      00000001800160c0     MSVCRT:MSVCR100.dll
 0002:000000c8       __imp___C_specific_handler 00000001800160c8     MSVCRT:MSVCR100.dll
 0002:000000d0       __imp__amsg_exit           00000001800160d0     MSVCRT:MSVCR100.dll
 0002:000000d8       __imp__encoded_null        00000001800160d8     MSVCRT:MSVCR100.dll
 0002:000000e0       __imp__initterm_e          00000001800160e0     MSVCRT:MSVCR100.dll
 0002:000000e8       __imp__initterm            00000001800160e8     MSVCRT:MSVCR100.dll
 0002:000000f0       __imp__malloc_crt          00000001800160f0     MSVCRT:MSVCR100.dll
 0002:000000f8       __imp_strrchr              00000001800160f8     MSVCRT:MSVCR100.dll
 0002:00000100       __imp_ceil                 0000000180016100     MSVCRT:MSVCR100.dll
 0002:00000108       __imp_strncmp              0000000180016108     MSVCRT:MSVCR100.dll
 0002:00000110       __imp_longjmp              0000000180016110     MSVCRT:MSVCR100.dll
 0002:00000118       __imp_strncpy              0000000180016118     MSVCRT:MSVCR100.dll
 0002:00000120       __imp__setjmp              0000000180016120     MSVCRT:MSVCR100.dll
 0002:00000128       __imp_memcpy               0000000180016128     MSVCRT:MSVCR100.dll
 0002:00000130       __imp_strcat               0000000180016130     MSVCRT:MSVCR100.dll
 0002:00000138       __imp_strlen               0000000180016138     MSVCRT:MSVCR100.dll
 0002:00000140       __imp_malloc               0000000180016140     MSVCRT:MSVCR100.dll
 0002:00000148       __imp_sprintf              0000000180016148     MSVCRT:MSVCR100.dll
 0002:00000150       __imp_free                 0000000180016150     MSVCRT:MSVCR100.dll
 0002:00000158       __imp_memset               0000000180016158     MSVCRT:MSVCR100.dll
 0002:00000160       __imp_strcmp               0000000180016160     MSVCRT:MSVCR100.dll
 0002:00000168       \177MSVCR100_NULL_THUNK_DATA 0000000180016168     MSVCRT:MSVCR100.dll
 0002:00000170       __imp_emlrtInitCharArrayR2013a 0000000180016170     libemlrt:libemlrt.dll
 0002:00000178       __imp_emlrtIsEnumR2009a    0000000180016178     libemlrt:libemlrt.dll
 0002:00000180       __imp_emlrtGetEnumUnderlyingArrayR2009a 0000000180016180     libemlrt:libemlrt.dll
 0002:00000188       __imp_emlrtTranslateUTF16MessagetoLCPstring 0000000180016188     libemlrt:libemlrt.dll
 0002:00000190       __imp_emlrtForLoopVectorIsValidR2011b 0000000180016190     libemlrt:libemlrt.dll
 0002:00000198       __imp_emlrtTranslateMessageIDtoLCPstring 0000000180016198     libemlrt:libemlrt.dll
 0002:000001a0       __imp_emlrtExtractMessageId 00000001800161a0     libemlrt:libemlrt.dll
 0002:000001a8       __imp_emlrtNameCapturePostProcessR2012a 00000001800161a8     libemlrt:libemlrt.dll
 0002:000001b0       __imp_emlrtImportVsFiArrayR2009b 00000001800161b0     libemlrt:libemlrt.dll
 0002:000001b8       __imp_emlrtCreateReference 00000001800161b8     libemlrt:libemlrt.dll
 0002:000001c0       __imp_emlrtGetEnumElementR2009a 00000001800161c0     libemlrt:libemlrt.dll
 0002:000001c8       __imp_emlrtCreateEnumR2012b 00000001800161c8     libemlrt:libemlrt.dll
 0002:000001d0       __imp_emlrtCheckEnumR2012b 00000001800161d0     libemlrt:libemlrt.dll
 0002:000001d8       __imp_emlrtCheckVsBuiltInR2012b 00000001800161d8     libemlrt:libemlrt.dll
 0002:000001e0       __imp_emlrtCheckBuiltInR2012b 00000001800161e0     libemlrt:libemlrt.dll
 0002:000001e8       __imp_emlrtDestroyRootTLS  00000001800161e8     libemlrt:libemlrt.dll
 0002:000001f0       __imp_emlrtCreateRootTLS   00000001800161f0     libemlrt:libemlrt.dll
 0002:000001f8       \177libemlrt_NULL_THUNK_DATA 00000001800161f8     libemlrt:libemlrt.dll
 0002:00000200       __imp_ssRegisterDataTypeFxpScaledDouble 0000000180016200     libfixedpoint:libfixedpoint.dll
 0002:00000208       __imp_ssRegisterDataTypeFxpFSlopeFixExpBias 0000000180016208     libfixedpoint:libfixedpoint.dll
 0002:00000210       \177libfixedpoint_NULL_THUNK_DATA 0000000180016210     libfixedpoint:libfixedpoint.dll
 0002:00000218       __imp_mexPutVariable       0000000180016218     libmex:libmex.dll
 0002:00000220       __imp_mexGetVariable       0000000180016220     libmex:libmex.dll
 0002:00000228       __imp_mexCallMATLABWithTrap 0000000180016228     libmex:libmex.dll
 0002:00000230       __imp_mexMakeMemoryPersistent 0000000180016230     libmex:libmex.dll
 0002:00000238       __imp_mexLock              0000000180016238     libmex:libmex.dll
 0002:00000240       __imp_mexUnlock            0000000180016240     libmex:libmex.dll
 0002:00000248       __imp_mexIsLocked          0000000180016248     libmex:libmex.dll
 0002:00000250       __imp_mexMakeArrayPersistent 0000000180016250     libmex:libmex.dll
 0002:00000258       __imp_mexWarnMsgTxt        0000000180016258     libmex:libmex.dll
 0002:00000260       __imp_mexCallMATLAB        0000000180016260     libmex:libmex.dll
 0002:00000268       __imp_mexErrMsgTxt         0000000180016268     libmex:libmex.dll
 0002:00000270       \177libmex_NULL_THUNK_DATA 0000000180016270     libmex:libmex.dll
 0002:00000278       __imp_mxIsChar             0000000180016278     libmx:libmx.dll
 0002:00000280       __imp_mxCreateDoubleMatrix_730 0000000180016280     libmx:libmx.dll
 0002:00000288       __imp_mxGetPr              0000000180016288     libmx:libmx.dll
 0002:00000290       __imp_mxGetString_730      0000000180016290     libmx:libmx.dll
 0002:00000298       __imp_mxDestroyArray       0000000180016298     libmx:libmx.dll
 0002:000002a0       __imp_mxCreateStringFromNChars_700 00000001800162a0     libmx:libmx.dll
 0002:000002a8       __imp_mxGetElementSize     00000001800162a8     libmx:libmx.dll
 0002:000002b0       __imp_mxGetNumberOfDimensions_700 00000001800162b0     libmx:libmx.dll
 0002:000002b8       __imp_mxGetDimensions_700  00000001800162b8     libmx:libmx.dll
 0002:000002c0       __imp_mxCalcSingleSubscript_700 00000001800162c0     libmx:libmx.dll
 0002:000002c8       __imp_mxCreateNumericMatrix_700 00000001800162c8     libmx:libmx.dll
 0002:000002d0       __imp_mxArrayClassIDName   00000001800162d0     libmx:libmx.dll
 0002:000002d8       __imp_mxGetImagData        00000001800162d8     libmx:libmx.dll
 0002:000002e0       __imp_mxIsEmpty            00000001800162e0     libmx:libmx.dll
 0002:000002e8       __imp_mxIsNaN              00000001800162e8     libmx:libmx.dll
 0002:000002f0       __imp_mxGetFieldNumber     00000001800162f0     libmx:libmx.dll
 0002:000002f8       __imp_mxCreateStructMatrix_700 00000001800162f8     libmx:libmx.dll
 0002:00000300       __imp_mxGetNumberOfFields  0000000180016300     libmx:libmx.dll
 0002:00000308       __imp_mxGetFieldNameByNumber 0000000180016308     libmx:libmx.dll
 0002:00000310       __imp_mxGetFieldByNumber_700 0000000180016310     libmx:libmx.dll
 0002:00000318       __imp_mxIsCell             0000000180016318     libmx:libmx.dll
 0002:00000320       __imp_mxIsSparse           0000000180016320     libmx:libmx.dll
 0002:00000328       __imp_mxGetLogicals        0000000180016328     libmx:libmx.dll
 0002:00000330       __imp_mxIsClass            0000000180016330     libmx:libmx.dll
 0002:00000338       __imp_mxIsA                0000000180016338     libmx:libmx.dll
 0002:00000340       __imp_mxIsStruct           0000000180016340     libmx:libmx.dll
 0002:00000348       __imp_mxAddField           0000000180016348     libmx:libmx.dll
 0002:00000350       __imp_mxSetField_700       0000000180016350     libmx:libmx.dll
 0002:00000358       __imp_mxGetClassName       0000000180016358     libmx:libmx.dll
 0002:00000360       __imp_mxGetCell_700        0000000180016360     libmx:libmx.dll
 0002:00000368       __imp_mxSetCell_700        0000000180016368     libmx:libmx.dll
 0002:00000370       __imp_mxCreateCellMatrix_700 0000000180016370     libmx:libmx.dll
 0002:00000378       __imp_mxGetProperty_700    0000000180016378     libmx:libmx.dll
 0002:00000380       __imp_mxCreateDoubleMatrix_700 0000000180016380     libmx:libmx.dll
 0002:00000388       __imp_mxIsLogical          0000000180016388     libmx:libmx.dll
 0002:00000390       __imp_mxCreateNumericArray_700 0000000180016390     libmx:libmx.dll
 0002:00000398       __imp_mxGetData            0000000180016398     libmx:libmx.dll
 0002:000003a0       __imp_mxCreateStructArray_700 00000001800163a0     libmx:libmx.dll
 0002:000003a8       __imp_mxSetFieldByNumber_700 00000001800163a8     libmx:libmx.dll
 0002:000003b0       __imp_mxGetField_700       00000001800163b0     libmx:libmx.dll
 0002:000003b8       __imp_mxGetNumberOfElements 00000001800163b8     libmx:libmx.dll
 0002:000003c0       __imp_mxArrayToString      00000001800163c0     libmx:libmx.dll
 0002:000003c8       __imp_mxFree               00000001800163c8     libmx:libmx.dll
 0002:000003d0       __imp_mxGetString_700      00000001800163d0     libmx:libmx.dll
 0002:000003d8       __imp_mxCalloc             00000001800163d8     libmx:libmx.dll
 0002:000003e0       __imp_mxGetM               00000001800163e0     libmx:libmx.dll
 0002:000003e8       __imp_mxGetN               00000001800163e8     libmx:libmx.dll
 0002:000003f0       __imp_mxIsComplex          00000001800163f0     libmx:libmx.dll
 0002:000003f8       __imp_mxIsNumeric          00000001800163f8     libmx:libmx.dll
 0002:00000400       __imp_mxGetClassID         0000000180016400     libmx:libmx.dll
 0002:00000408       __imp_mxCreateCellMatrix_730 0000000180016408     libmx:libmx.dll
 0002:00000410       __imp_mxCreateStructMatrix_730 0000000180016410     libmx:libmx.dll
 0002:00000418       __imp_mxCreateString       0000000180016418     libmx:libmx.dll
 0002:00000420       __imp_mxSetField_730       0000000180016420     libmx:libmx.dll
 0002:00000428       __imp_mxCreateDoubleScalar 0000000180016428     libmx:libmx.dll
 0002:00000430       __imp_mxDuplicateArray     0000000180016430     libmx:libmx.dll
 0002:00000438       __imp_mxGetScalar          0000000180016438     libmx:libmx.dll
 0002:00000440       \177libmx_NULL_THUNK_DATA  0000000180016440     libmx:libmx.dll
 0002:00000448       __imp_utCPUtime            0000000180016448     libut:libut.dll
 0002:00000450       __imp_utFree               0000000180016450     libut:libut.dll
 0002:00000458       __imp_utMalloc             0000000180016458     libut:libut.dll
 0002:00000460       __imp_utVSNprintf          0000000180016460     libut:libut.dll
 0002:00000468       \177libut_NULL_THUNK_DATA  0000000180016468     libut:libut.dll
 0002:00000470       __xc_a                     0000000180016470     MSVCRT:cinitexe.obj
 0002:00000478       __xc_z                     0000000180016478     MSVCRT:cinitexe.obj
 0002:00000480       __xi_a                     0000000180016480     MSVCRT:cinitexe.obj
 0002:00000490       __xi_z                     0000000180016490     MSVCRT:cinitexe.obj
 0002:000004a0       __real@41d023d4a5c00000    00000001800164a0     two_tanks_sfun.obj
 0002:000004a8       __real@41e286daa5400000    00000001800164a8     two_tanks_sfun.obj
 0002:000004b0       __real@41c7846b3a800000    00000001800164b0     two_tanks_sfun.obj
 0002:000004b8       __real@41e27a9d61400000    00000001800164b8     two_tanks_sfun.obj
 0002:000004c0       __real@41d407a768000000    00000001800164c0     two_tanks_sfun.obj
 0002:000004c8       __real@41e78be1faa00000    00000001800164c8     two_tanks_sfun.obj
 0002:000004d0       __real@41e32cd025200000    00000001800164d0     two_tanks_sfun.obj
 0002:000004d8       __real@41ea6a94bd200000    00000001800164d8     two_tanks_sfun.obj
 0002:000004e0       __real@417d012510000000    00000001800164e0     two_tanks_sfun.obj
 0002:000004e8       __real@41db4d743c400000    00000001800164e8     two_tanks_sfun.obj
 0002:000004f0       __real@4181f88ff8000000    00000001800164f0     two_tanks_sfun.obj
 0002:000004f8       __real@41cb26eb00000000    00000001800164f8     two_tanks_sfun.obj
 0002:00000500       __real@41e150a61b600000    0000000180016500     two_tanks_sfun.obj
 0002:00000508       __real@41c4b34d4c000000    0000000180016508     two_tanks_sfun.obj
 0002:00000510       __real@41d49a14a1800000    0000000180016510     two_tanks_sfun.obj
 0002:00000518       __real@41d1df3d4e400000    0000000180016518     two_tanks_sfun.obj
 0002:00000520       __real@41e7e12d67a00000    0000000180016520     c1_two_tanks.obj
 0002:00000528       __real@41d0e5d14d400000    0000000180016528     c1_two_tanks.obj
 0002:00000530       __real@41a7d22e3e000000    0000000180016530     c1_two_tanks.obj
 0002:00000538       __real@41e2efd758800000    0000000180016538     c1_two_tanks.obj
 0002:00000540       __real@4024000000000000    0000000180016540     c1_two_tanks.obj
 0002:00000548       __real@3ff0000000000000    0000000180016548     c1_two_tanks.obj
 0002:00000550       __real@4000000000000000    0000000180016550     c1_two_tanks.obj
 0002:00000558       __real@4010000000000000    0000000180016558     c1_two_tanks.obj
 0002:00000560       __real@4008000000000000    0000000180016560     c1_two_tanks.obj
 0002:00000568       __real@4014000000000000    0000000180016568     c1_two_tanks.obj
 0002:00000570       __real@bff0000000000000    0000000180016570     c1_two_tanks.obj
 0002:00000580       __mask@@NegDouble@         0000000180016580     c1_two_tanks.obj
 0002:00000590       DYNAMIC_DIMENSION_DEF      0000000180016590     two_tanks_sfun_registry.obj
 0002:000005b0       _ssBadLevel2InputAccessMsg 00000001800165b0     two_tanks_sfun_registry.obj
 0002:00000740       _ssBadLevel2DirectFeedMsg  0000000180016740     two_tanks_sfun_registry.obj
 0002:00000880       _ssBadLevel2DirectFeedSolutionMsg 0000000180016880     two_tanks_sfun_registry.obj
 0002:000008f0       _ssBadLevel2ZeroDirectFeedMsg 00000001800168f0     two_tanks_sfun_registry.obj
 0002:00000a30       _ssBadLevel2ZeroDirectFeedMsg2 0000000180016a30     two_tanks_sfun_registry.obj
 0002:00000b18       __real@0000000000000000    0000000180016b18     two_tanks_sfun_registry.obj
 0002:00000b20       __real@41602cbca0000000    0000000180016b20     two_tanks_sfun_registry.obj
 0002:00000b28       ??_C@_09GIFEIFFL@sfprivate?$AA@ 0000000180016b28     sfc_mex:sfc_sf.obj
 0002:00000b38       ??_C@_0CC@JDELABLI@get_machine_and_chart_file_numbe@ 0000000180016b38     sfc_mex:sfc_sf.obj
 0002:00000b60       ??_C@_0BO@JCKKMPIB@get_sfun_block_specialization?$AA@ 0000000180016b60     sfc_mex:sfc_sf.obj
 0002:00000b80       ??_C@_0FP@OGBKADON@The?5chart?5name?5?4?4?4?$CFs?5is?5not?5pres@ 0000000180016b80     sfc_mex:sfc_sf.obj
 0002:00000be0       ??_C@_0FM@KEMGDKHM@The?5chart?5name?5?$CFs?5is?5not?5present@ 0000000180016be0     sfc_mex:sfc_sf.obj
 0002:00000c40       ??_C@_0BD@NMFAPBEK@mdlInitializeSizes?$AA@ 0000000180016c40     sfc_mex:sfc_sf.obj
 0002:00000c54       ??_C@_06EJFCAODB@sfc_sf?$AA@ 0000000180016c54     sfc_mex:sfc_sf.obj
 0002:00000c60       ??_C@_0BJ@PBIFPMMD@mdlInitializeSampleTimes?$AA@ 0000000180016c60     sfc_mex:sfc_sf.obj
 0002:00000c80       ??_C@_0FI@CPPGBPPK@Stateflow?5Internal?5Error?3?5?6Error@ 0000000180016c80     sfc_mex:sfc_sf.obj
 0002:00000cd8       ??_C@_02GFKODMMF@sf?$AA@   0000000180016cd8     sfc_mex:sfc_sf.obj
 0002:00000ce0       ??_C@_0CN@GACCLMJH@preload_infomatman_for_rtw_optim@ 0000000180016ce0     sfc_mex:sfc_sf.obj
 0002:00000d10       ??_C@_07CFINJGKH@Private?$AA@ 0000000180016d10     sfc_mex:sfc_sf.obj
 0002:00000d20       ??_C@_0EK@MLFDFPLJ@Stateflow?5Internal?5Error?3?5?6Inter@ 0000000180016d20     sfc_mex:sfc_sf.obj
 0002:00000d70       ??_C@_0BA@OAHFHIKJ@updateBuildInfo?$AA@ 0000000180016d70     sfc_mex:sfc_sf.obj
 0002:00000d80       ??_C@_0BG@PNKGMGHF@rtw_optimization_info?$AA@ 0000000180016d80     sfc_mex:sfc_sf.obj
 0002:00000da0       ??_C@_0GC@KEKNFKIJ@Stateflow?5Internal?5Error?3?5?6rtw_o@ 0000000180016da0     sfc_mex:sfc_sf.obj
 0002:00000e08       ??_C@_0BA@PHPHFLPF@chart_inlinable?$AA@ 0000000180016e08     sfc_mex:sfc_sf.obj
 0002:00000e20       ??_C@_0MB@KGDKCEKF@Stateflow?5Internal?5Error?3?5?6Numbe@ 0000000180016e20     sfc_mex:sfc_sf.obj
 0002:00000ef0       ??_C@_0GN@DNCJEGHD@Stateflow?5Internal?5Error?3?5?6Error@ 0000000180016ef0     sfc_mex:sfc_sf.obj
 0002:00000f60       ??_C@_0CA@GOKFFBBO@outputEventsWithMultipleCallers?$AA@ 0000000180016f60     sfc_mex:sfc_sf.obj
 0002:00000f80       ??_C@_0LH@NDHODBLK@Stateflow?5Internal?5Error?3?5?6Numbe@ 0000000180016f80     sfc_mex:sfc_sf.obj
 0002:00001038       ??_C@_0BB@GEEDBOGK@reusable_outputs?$AA@ 0000000180017038     sfc_mex:sfc_sf.obj
 0002:00001050       ??_C@_0II@FEBCOBGA@Stateflow?5Internal?5Error?3?5?6Numbe@ 0000000180017050     sfc_mex:sfc_sf.obj
 0002:000010d8       ??_C@_0BG@HMMHPAKE@expressionable_inputs?$AA@ 00000001800170d8     sfc_mex:sfc_sf.obj
 0002:000010f0       ??_C@_0BB@MBBOKNEL@listen_for_ctrlc?$AA@ 00000001800170f0     sfc_mex:sfc_sf.obj
 0002:00001104       ??_C@_03LOANPFAI@mex?$AA@  0000000180017104     sfc_mex:sfc_sf.obj
 0002:00001108       ??_C@_07HLHKBCBI@sfdebug?$AA@ 0000000180017108     sfc_mex:sfc_sf.obj
 0002:00001110       ??_C@_07MFNNEMOJ@drawnow?$AA@ 0000000180017110     sfc_mex:sfc_sf.obj
 0002:00001118       __real@3fd3333333333333    0000000180017118     sfc_mex:sfc_sf.obj
 0002:00001120       ??_C@_0DG@OJBAPEMA@Internal?5Error?3?5paramsIndex?5?$DN?5?$CFd@ 0000000180017120     sfc_mex:sfc_sf.obj
 0002:00001160       ??_C@_0BAI@GPDPHGCD@Cannot?5broadcast?5function?5call?5o@ 0000000180017160     sfc_mex:sfc_sf.obj
 0002:00001270       ??_C@_0BBC@NGKHEJAF@Cannot?5enable?1disable?5function?5c@ 0000000180017270     sfc_mex:sfc_sf.obj
 0002:00001388       ??_C@_08HDNBGBNP@bitWidth?$AA@ 0000000180017388     sfc_mex:sfc_sf.obj
 0002:00001398       ??_C@_0BG@MDDFDLDC@resolveToSignalObject?$AA@ 0000000180017398     sfc_mex:sfc_sf.obj
 0002:000013b0       ??_C@_07KHBFOCMF@varName?$AA@ 00000001800173b0     sfc_mex:sfc_sf.obj
 0002:000013b8       ??_C@_09LHPHPAOE@isComplex?$AA@ 00000001800173b8     sfc_mex:sfc_sf.obj
 0002:000013c8       ??_C@_0CM@OAMAJMIG@Failed?5to?5register?5type?5?8?$CFs?8?5wit@ 00000001800173c8     sfc_mex:sfc_sf.obj
 0002:000013f8       ??_C@_08MLIGMCAH@typeSize?$AA@ 00000001800173f8     sfc_mex:sfc_sf.obj
 0002:00001404       ??_C@_05OOLPEHEB@void?$CK?$AA@ 0000000180017404     sfc_mex:sfc_sf.obj
 0002:00001410       ??_C@_0BI@OFLHAMB@vector_of_void_pointers?$AA@ 0000000180017410     sfc_mex:sfc_sf.obj
 0002:00001428       ??_C@_04NBAGBPGE@bias?$AA@ 0000000180017428     sfc_mex:sfc_sf.obj
 0002:00001430       ??_C@_08EGJNFMPO@exponent?$AA@ 0000000180017430     sfc_mex:sfc_sf.obj
 0002:0000143c       ??_C@_05LAHHKLJI@slope?$AA@ 000000018001743c     sfc_mex:sfc_sf.obj
 0002:00001448       ??_C@_0L@EMMELFNN@wordLength?$AA@ 0000000180017448     sfc_mex:sfc_sf.obj
 0002:00001458       ??_C@_08EJEJGLGA@isSigned?$AA@ 0000000180017458     sfc_mex:sfc_sf.obj
 0002:00001468       ??_C@_0P@MJIKALJF@isScaledDouble?$AA@ 0000000180017468     sfc_mex:sfc_sf.obj
 0002:00001478       ??_C@_05LFJLPLPG@fixpt?$AA@ 0000000180017478     sfc_mex:sfc_sf.obj
 0002:00001480       ??_C@_07GOBOHMJA@boolean?$AA@ 0000000180017480     sfc_mex:sfc_sf.obj
 0002:00001488       ??_C@_06PKDKHAMA@uint32?$AA@ 0000000180017488     sfc_mex:sfc_sf.obj
 0002:00001490       ??_C@_05GIMEPBJB@int32?$AA@ 0000000180017490     sfc_mex:sfc_sf.obj
 0002:00001498       ??_C@_06JNNCGBKK@uint16?$AA@ 0000000180017498     sfc_mex:sfc_sf.obj
 0002:000014a0       ??_C@_05PCMOAPL@int16?$AA@ 00000001800174a0     sfc_mex:sfc_sf.obj
 0002:000014a8       ??_C@_05BOGOCLFF@uint8?$AA@ 00000001800174a8     sfc_mex:sfc_sf.obj
 0002:000014b0       ??_C@_04DCGBOBJJ@int8?$AA@ 00000001800174b0     sfc_mex:sfc_sf.obj
 0002:000014b8       ??_C@_06EJFMBPJF@single?$AA@ 00000001800174b8     sfc_mex:sfc_sf.obj
 0002:000014c0       ??_C@_06BNJCAIGJ@double?$AA@ 00000001800174c0     sfc_mex:sfc_sf.obj
 0002:000014c8       ??_C@_04GPMDFGEJ@type?$AA@ 00000001800174c8     sfc_mex:sfc_sf.obj
 0002:000014d0       ??_C@_0O@EIPJLOAA@extModeUpload?$AA@ 00000001800174d0     sfc_mex:sfc_sf.obj
 0002:000014e0       ??_C@_04IAGNFIBA@size?$AA@ 00000001800174e0     sfc_mex:sfc_sf.obj
 0002:000014e8       __real@43e0000000000000    00000001800174e8     sfc_mex:sfc_sf.obj
 0002:000014f0       ??_C@_00CNPNBAHC@?$AA@     00000001800174f0     sfc_mex:sfc_sf.obj
 0002:000014f4       ??_C@_03PLHFFLIH@ptr?$AA@  00000001800174f4     sfc_mex:sfc_sf.obj
 0002:000014f8       ??_C@_0BC@HMCIKMPA@requiredStackSize?$AA@ 00000001800174f8     sfc_mex:sfc_sf.obj
 0002:00001510       ??_C@_0CB@OCGIMAKA@RegisterMachineParentedDataDwork@ 0000000180017510     sfc_mex:sfc_sf.obj
 0002:00001538       ??_C@_0BD@LFPAKDFC@machineDataVarInfo?$AA@ 0000000180017538     sfc_mex:sfc_sf.obj
 0002:00001550       ??_C@_09GAJBGLOB@dworkInfo?$AA@ 0000000180017550     sfc_mex:sfc_sf.obj
 0002:0000155c       ??_C@_05DGLCPCBN@?$CFsx?$CFd?$AA@ 000000018001755c     sfc_mex:sfc_mex.obj
 0002:00001564       ??_C@_02DPKJAMEF@?$CFd?$AA@ 0000000180017564     sfc_mex:sfc_mex.obj
 0002:00001568       ??_C@_0CC@DJOAOECF@Unknown?5MATLAB?5error?5encountered@ 0000000180017568     sfc_mex:sfc_mex.obj
 0002:00001590       ??_C@_0CJ@DAIIKGLI@?$CFs?5in?5?$CFs?5should?5never?5be?5called?5@ 0000000180017590     sfc_mex:sfc_mex.obj
 0002:000015c0       ??_C@_0CE@ICKLNELB@Error?5calling?5MATLAB?5function?5?8?$CF@ 00000001800175c0     sfc_mex:sfc_mex.obj
 0002:000015e4       ??_C@_02DKCKIIND@?$CFs?$AA@ 00000001800175e4     sfc_mex:sfc_mex.obj
 0002:000015e8       ??_C@_07ONPBMBOP@message?$AA@ 00000001800175e8     sfc_mex:sfc_mex.obj
 0002:000015f0       ??_C@_09HKCBALOK@embedded?4?$AA@ 00000001800175f0     sfc_mex:sfc_mex.obj
 0002:000015fc       ??_C@_06KKKLBFKN@uint64?$AA@ 00000001800175fc     sfc_mex:sfc_mex.obj
 0002:00001604       ??_C@_05DIFFJEPM@int64?$AA@ 0000000180017604     sfc_mex:sfc_mex.obj
 0002:0000160c       ??_C@_04KBDJOJNB@?$FL?$CFd?$FN?$AA@ 000000018001760c     sfc_mex:sfc_mex.obj
 0002:00001618       ??_C@_0CD@NFPEPNBJ@Cannot?5add?5field?5?$CFs?5to?5struct?5?$CFs@ 0000000180017618     sfc_mex:sfc_mex.obj
 0002:00001640       ??_C@_0CF@PLDCCEBG@Cannot?5get?5field?5?$CFs?5from?5struct?5@ 0000000180017640     sfc_mex:sfc_mex.obj
 0002:00001668       ??_C@_0CO@MFJLJCHI@Struct?5array?5?8?$CFs?8?5does?5not?5have?5@ 0000000180017668     sfc_mex:sfc_mex.obj
 0002:00001698       ??_C@_0DF@IPGEGIDM@Object?5?8?$CFs?8?5is?5not?5a?5struct?3?5can@ 0000000180017698     sfc_mex:sfc_mex.obj
 0002:000016d0       ??_C@_0BL@KEKJNNL@MATLAB?5expression?5?8?$CFs?8?5?$CFs?4?$AA@ 00000001800176d0     sfc_mex:sfc_mex.obj
 0002:000016f0       ??_C@_0GH@JOEOEBFA@Size?5mismatch?5for?5?8?$CFs?8?5on?5dimens@ 00000001800176f0     sfc_mex:sfc_mex.obj
 0002:00001758       ??_C@_0DN@DNLDLJNN@is?5not?5of?5the?5correct?5class?3?5exp@ 0000000180017758     sfc_mex:sfc_mex.obj
 0002:00001798       ??_C@_06POLMGHPK@isreal?$AA@ 0000000180017798     sfc_mex:sfc_mex.obj
 0002:000017a0       ??_C@_0CC@EDDDCJDC@is?5not?5of?5the?5correct?5complexnes@ 00000001800177a0     sfc_mex:sfc_mex.obj
 0002:000017c8       ??_C@_0CB@POBCEEOP@is?5not?5of?5the?5correct?5sparseness@ 00000001800177c8     sfc_mex:sfc_mex.obj
 0002:000017f0       ??_C@_0CC@JOFDGEBC@is?5not?5of?5the?5correct?5numerictyp@ 00000001800177f0     sfc_mex:sfc_mex.obj
 0002:00001818       ??_C@_07MIMONDDE@isequal?$AA@ 0000000180017818     sfc_mex:sfc_mex.obj
 0002:00001820       ??_C@_0M@NAPEIPJI@numerictype?$AA@ 0000000180017820     sfc_mex:sfc_mex.obj
 0002:00001830       ??_C@_0BN@IMIABIKK@is?5not?5of?5the?5correct?5fimath?$AA@ 0000000180017830     sfc_mex:sfc_mex.obj
 0002:00001850       ??_C@_06LJOKAFHF@fimath?$AA@ 0000000180017850     sfc_mex:sfc_mex.obj
 0002:00001860       ??_C@_0EN@JEJCELH@Stateflow?5Internal?5Error?3?5?6Error@ 0000000180017860     sfc_mex:sfc_mex.obj
 0002:000018b0       ??_C@_08MJJBNONC@mxDecode?$AA@ 00000001800178b0     sfc_mex:sfc_mex.obj
 0002:000018c0       ??_C@_0EP@IAFBLFNF@Stateflow?5Internal?5Error?3?5?6Error@ 00000001800178c0     sfc_mex:sfc_mex.obj
 0002:00001910       ??_C@_0GH@OOBFJADG@Simulation?5stopped?5due?5to?5out?5of@ 0000000180017910     sfc_mex:sfc_mex.obj
 0002:00001980       ??_C@_0HC@JODLBNFO@Simulation?5stopped?5due?5to?5size?5m@ 0000000180017980     sfc_mex:sfc_mex.obj
 0002:00001a00       ??_C@_0HC@PPOAOPGB@Simulation?5stopped?5due?5to?5size?5m@ 0000000180017a00     sfc_mex:sfc_mex.obj
 0002:00001a80       ??_C@_0JM@OFMOAAGL@Simulation?5stopped?5due?5to?5size?5m@ 0000000180017a80     sfc_mex:sfc_mex.obj
 0002:00001b20       ??_C@_0KC@ODCGHMPH@Simulation?5stopped?5due?5to?5size?5o@ 0000000180017b20     sfc_mex:sfc_mex.obj
 0002:00001bd0       ??_C@_0GO@BKNPNGBP@Subscripted?5assignment?5dimension@ 0000000180017bd0     sfc_mex:sfc_mex.obj
 0002:00001c40       ??_C@_0DJ@MEDANBMA@Enable?5debugging?5to?5pinpoint?5the@ 0000000180017c40     sfc_mex:sfc_mex.obj
 0002:00001c7c       ??_C@_01CLKCMJKC@?5?$AA@   0000000180017c7c     sfc_mex:sfc_mex.obj
 0002:00001c80       ??_C@_0BAO@DDKKHLGF@Matrix?$CImatrix?$CJ?5subscript?5turned?5@ 0000000180017c80     sfc_mex:sfc_mex.obj
 0002:00001d90       ??_C@_0BAO@MGKOAKHL@Vector?$CIvector?$CJ?5subscript?5turned?5@ 0000000180017d90     sfc_mex:sfc_mex.obj
 0002:00001ea0       ??_C@_0FA@KAHDAHHI@Cannot?5determine?5the?5exact?5numbe@ 0000000180017ea0     sfc_mex:sfc_mex.obj
 0002:00001ef0       ??_C@_0FC@HJKNPCCF@Negative?5value?5detected?4?5Enable?5@ 0000000180017ef0     sfc_mex:sfc_mex.obj
 0002:00001f48       ??_C@_0DK@JJKHINMK@Overflow?5detected?4?5Enable?5debugg@ 0000000180017f48     sfc_mex:sfc_mex.obj
 0002:00001f90       ??_C@_0EA@POIJMBCP@Divide?5by?5zero?5detected?4?5Enable?5@ 0000000180017f90     sfc_mex:sfc_mex.obj
 0002:00001fd0       ??_C@_0EK@CFEMECLL@Nonconforming?5enum?5value?5detecte@ 0000000180017fd0     sfc_mex:sfc_mex.obj
 0002:00002020       ??_C@_0EE@BPGAOMO@Size?5mismatch?5for?5MATLAB?5express@ 0000000180018020     sfc_mex:sfc_mex.obj
 0002:00002070       ??_C@_0EJ@KLNPHOFG@Dimension?5of?5fixed?5size?5one?5?$CI1?$CJ?5@ 0000000180018070     sfc_mex:sfc_mex.obj
 0002:000020c0       ??_C@_07JFPGMOK@fprintf?$AA@ 00000001800180c0     sfc_mex:sfc_mex.obj
 0002:000020d0       ??_C@_0FE@EHCFPDEG@In?5MATLAB?5expression?5?8?$CFs?8?0?5field@ 00000001800180d0     sfc_mex:sfc_mex.obj
 0002:00002128       ??_C@_0DE@IJIFCHLH@In?5MATLAB?5expression?5?8?$CFs?8?0?5field@ 0000000180018128     sfc_mex:sfc_mex.obj
 0002:00002160       ??_C@_0FK@JKPMKGDE@MATLAB?5expression?5?8?$CFs?8?5does?5not?5@ 0000000180018160     sfc_mex:sfc_mex.obj
 0002:000021bc       ??_C@_06PBJBIPGK@struct?$AA@ 00000001800181bc     sfc_mex:sfc_mex.obj
 0002:000021c8       ??_C@_0O@NFNPPCGN@isfimathlocal?$AA@ 00000001800181c8     sfc_mex:sfc_mex.obj
 0002:000021d8       ??_C@_0M@MLCGNPLD@embedded?4fi?$AA@ 00000001800181d8     sfc_mex:sfc_mex.obj
 0002:000021e8       ??_C@_0M@EGMNDJHO@?$CFs?5?$DN?5?$CF?415g?6?$AA@ 00000001800181e8     sfc_mex:sfc_mex.obj
 0002:000021f4       ??_C@_03OFAPEBGM@?$CFs?6?$AA@ 00000001800181f4     sfc_mex:sfc_mex.obj
 0002:000021f8       ??_C@_0CL@LLBJDFID@failed?5sf_assertion?5in?5?$CFs?5at?5lin@ 00000001800181f8     sfc_mex:sfc_mex.obj
 0002:00002230       ??_C@_0EJ@MIHEOKKA@?8?$CFs?8?3?5Array?5with?5number?5of?5dimen@ 0000000180018230     sfc_mex:sfc_mex.obj
 0002:00002280       ??_C@_0CI@KFHDHNKF@b?3?2matlab?2stateflow?2c?2mex?2src?2sf@ 0000000180018280     sfc_mex:sfc_mex.obj
 0002:000022a8       ??_C@_0O@FCFMOEOA@aNumDims?5?$DO?$DN?50?$AA@ 00000001800182a8     sfc_mex:sfc_mex.obj
 0002:000022b8       ??_C@_0CK@KDIMGCCA@?8?$CFs?8?3?5Sparse?5matrices?5are?5not?5su@ 00000001800182b8     sfc_mex:sfc_mex.obj
 0002:000022e8       ??_C@_0CI@KBLJAMNB@MATLAB?5expression?5?8?$CFs?8?5is?5not?5nu@ 00000001800182e8     sfc_mex:sfc_mex.obj
 0002:00002310       ??_C@_0P@LCMMCGDM@aSrcMx?5?$CB?$DN?5NULL?$AA@ 0000000180018310     sfc_mex:sfc_mex.obj
 0002:00002320       ??_C@_0EI@HJNNACGI@Eval?5of?5MATLAB?5expression?5?8?$CFs?8?5i@ 0000000180018320     sfc_mex:sfc_mex.obj
 0002:00002368       ??_C@_0DM@BJICAGGK@Stateflow?5currently?5only?5support@ 0000000180018368     sfc_mex:sfc_mex.obj
 0002:000023a4       ??_C@_05LAPONLG@false?$AA@ 00000001800183a4     sfc_mex:sfc_mex.obj
 0002:000023ac       ??_C@_03LHCJEHON@nan?$AA@  00000001800183ac     sfc_mex:sfc_mex.obj
 0002:000023b0       ??_C@_04BHIIPFEC@base?$AA@ 00000001800183b0     sfc_mex:sfc_mex.obj
 0002:000023b8       ??_C@_06PLMANNP@evalin?$AA@ 00000001800183b8     sfc_mex:sfc_mex.obj
 0002:000023c0       ??_C@_06GFECGKEO@caller?$AA@ 00000001800183c0     sfc_mex:sfc_mex.obj
 0002:000023c8       ??_C@_0CM@LOMLNLMC@Invalid?5workspace?5type?5for?5sf_ma@ 00000001800183c8     sfc_mex:sfc_mex.obj
 0002:000023f4       ??_C@_01GBGANLPD@0?$AA@    00000001800183f4     sfc_mex:sfc_mex.obj
 0002:000023f8       ??_C@_06FJKEMHGD@global?$AA@ 00000001800183f8     sfc_mex:sfc_mex.obj
 0002:00002400       ??_C@_08KHPDDPHG@getfield?$AA@ 0000000180018400     sfc_mex:sfc_mex.obj
 0002:0000240c       ??_C@_05LPIJGKJ@Value?$AA@ 000000018001840c     sfc_mex:sfc_mex.obj
 0002:00002418       ??_C@_0BH@HNIMIIFD@Unknown?5workspace?5type?$AA@ 0000000180018418     sfc_mex:sfc_mex.obj
 0002:00002430       ??_C@_0DA@IPMLFPJI@MATLAB?5expression?5?8?$CFs?8?5could?5not@ 0000000180018430     sfc_mex:sfc_mex.obj
 0002:00002460       __real@43f0000000000000    0000000180018460     sfc_mex:sfc_mex.obj
 0002:00002470       ??_C@_0EB@HHPLBHBA@Parameter?5value?5out?5of?5bounds?4?5?$CF@ 0000000180018470     sfc_mex:sfc_mex.obj
 0002:000024b8       ??_C@_0CB@DBMOOMDL@Unsupported?5class?5type?5?$CFs?5for?5?$CFs@ 00000001800184b8     sfc_mex:sfc_mex.obj
 0002:000024e0       ??_C@_0BI@OPNKAIOC@mxIsComplex?$CImxArrayPtr?$CJ?$AA@ 00000001800184e0     sfc_mex:sfc_mex.obj
 0002:00002500       ??_C@_0GA@OFLPCMBM@Stateflow?5Runtime?5Warning?3?5Loss?5@ 0000000180018500     sfc_mex:sfc_mex.obj
 0002:00002560       __real@3810000000000000    0000000180018560     sfc_mex:sfc_mex.obj
 0002:00002568       __real@47efffffe0000000    0000000180018568     sfc_mex:sfc_mex.obj
 0002:00002570       __real@c060000000000000    0000000180018570     sfc_mex:sfc_mex.obj
 0002:00002578       __real@405fc00000000000    0000000180018578     sfc_mex:sfc_mex.obj
 0002:00002580       __real@406fe00000000000    0000000180018580     sfc_mex:sfc_mex.obj
 0002:00002588       __real@c0e0000000000000    0000000180018588     sfc_mex:sfc_mex.obj
 0002:00002590       __real@40dfffc000000000    0000000180018590     sfc_mex:sfc_mex.obj
 0002:00002598       __real@40efffe000000000    0000000180018598     sfc_mex:sfc_mex.obj
 0002:000025a0       __real@c1e0000000000000    00000001800185a0     sfc_mex:sfc_mex.obj
 0002:000025a8       __real@41dfffffffc00000    00000001800185a8     sfc_mex:sfc_mex.obj
 0002:000025b0       __real@41efffffffe00000    00000001800185b0     sfc_mex:sfc_mex.obj
 0002:000025b8       __real@c3e0000000000000    00000001800185b8     sfc_mex:sfc_mex.obj
 0002:000025c0       ??_C@_0DO@JIJMNCAH@Class?5mismatch?5for?5variable?5?8?$CFs?8@ 00000001800185c0     sfc_mex:sfc_mex.obj
 0002:00002600       ??_C@_03BBKEAIF@?$DP?$DP?$DP?$AA@ 0000000180018600     sfc_mex:sfc_mex.obj
 0002:00002608       ??_C@_0DE@HICLJLJO@Assignment?5of?5complex?5data?5to?5no@ 0000000180018608     sfc_mex:sfc_mex.obj
 0002:00002640       ??_C@_0CF@NHFFCIEB@MATLAB?5function?5?8?$CFs?8?5returned?5NU@ 0000000180018640     sfc_mex:sfc_mex.obj
 0002:00002668       __real@5f800000            0000000180018668     sfc_mex:sfc_mex.obj
 0002:00002670       ??_C@_0GP@JPKMBIEI@Array?5bounds?5error?5in?5MATLAB?5exp@ 0000000180018670     sfc_mex:sfc_mex.obj
 0002:000026e0       ??_C@_0P@FLJFOPHI@pIndex?$FLi?$FN?5?$DO?$DN?50?$AA@ 00000001800186e0     sfc_mex:sfc_mex.obj
 0002:000026f0       ??_C@_0DI@IGEABFHB@MATLAB?5expression?5?8?$CFs?8?5has?5?$CFd?5di@ 00000001800186f0     sfc_mex:sfc_mex.obj
 0002:00002728       ??_C@_0L@EFLJKPA@mxArrayPtr?$AA@ 0000000180018728     sfc_mex:sfc_mex.obj
 0002:00002738       ??_C@_0CK@FHKKOEPH@numDims?5?$DO?$DN?50?5?$CG?$CG?5numDims?5?$DM?$DN?5MAX_D@ 0000000180018738     sfc_mex:sfc_mex.obj
 0002:00002770       ??_C@_0EM@MPIDLJBF@MATLAB?5expression?5?8?$CFs?8?5subscript@ 0000000180018770     sfc_mex:sfc_mex.obj
 0002:000027bc       ??_C@_04IGKKBJEE@?$DN?$CFg?$DL?$AA@ 00000001800187bc     sfc_mex:sfc_mex.obj
 0002:000027c4       ??_C@_01PKGAHCOL@?$CJ?$AA@ 00000001800187c4     sfc_mex:sfc_mex.obj
 0002:000027c8       ??_C@_03LEIBKMN@?0?$CFd?$AA@ 00000001800187c8     sfc_mex:sfc_mex.obj
 0002:000027cc       ??_C@_03IECKINJK@?$CI?$CFd?$AA@ 00000001800187cc     sfc_mex:sfc_mex.obj
 0002:000027d0       ??_C@_0FB@HKJNNBFK@Stateflow?5ml?5type?5data?5?8?$CFs?8?5subs@ 00000001800187d0     sfc_mex:sfc_mex.obj
 0002:00002828       ??_C@_0CN@HPHHCDPK@Stateflow?5ml?5type?5data?5?8?$CFs?8?5is?5n@ 0000000180018828     sfc_mex:sfc_mex.obj
 0002:00002858       ??_C@_0CG@JIOBALFE@Stateflow?5ml?5type?5data?5?8?$CFs?8?5is?5e@ 0000000180018858     sfc_mex:sfc_mex.obj
 0002:00002880       ??_C@_0BD@GAHDCPBG@mxArrayPtr?5?$CB?$DN?5NULL?$AA@ 0000000180018880     sfc_mex:sfc_mex.obj
 0002:00002898       ??_C@_0CF@HCINMAFF@result?5?$DN?5mxCreateDoubleScalar?$CIva@ 0000000180018898     sfc_mex:sfc_mex.obj
 0002:000028c0       ??_C@_0BK@PHCKFGOO@numDims?5?$DM?$DN?5MAX_DIMENSIONS?$AA@ 00000001800188c0     sfc_mex:sfc_mex.obj
 0002:000028e0       ??_C@_0BF@GAJKLFOH@fixpt_lower_mx_array?$AA@ 00000001800188e0     sfc_mex:sfc_mex.obj
 0002:000028f8       ??_C@_02FINOOIBE@Cg?$AA@   00000001800188f8     sfc_mex:sfc_mex.obj
 0002:00002900       _pDefaultRawDllMain        0000000180018900     MSVCRT:crtdll.obj
 0002:00002900       _pRawDllMain               0000000180018900     MSVCRT:crtdll.obj
 0002:00002918       ?ProcessDetach@NativeDll@<CrtImplementationDetails>@@0IB 0000000180018918     MSVCRT:tncleanup.obj
 0002:0000291c       ?ProcessAttach@NativeDll@<CrtImplementationDetails>@@0IB 000000018001891c     MSVCRT:tncleanup.obj
 0002:00002920       ?ThreadAttach@NativeDll@<CrtImplementationDetails>@@0IB 0000000180018920     MSVCRT:tncleanup.obj
 0002:00002924       ?ThreadDetach@NativeDll@<CrtImplementationDetails>@@0IB 0000000180018924     MSVCRT:tncleanup.obj
 0002:00002928       ?ProcessVerifier@NativeDll@<CrtImplementationDetails>@@0IB 0000000180018928     MSVCRT:tncleanup.obj
 0002:00002930       __rtc_iaa                  0000000180018930     MSVCRT:_initsect_.obj
 0002:00002938       __rtc_izz                  0000000180018938     MSVCRT:_initsect_.obj
 0002:00002940       __rtc_taa                  0000000180018940     MSVCRT:_initsect_.obj
 0002:00002948       __rtc_tzz                  0000000180018948     MSVCRT:_initsect_.obj
 0002:00003fcc       __IMPORT_DESCRIPTOR_libmx  0000000180019fcc     libmx:libmx.dll
 0002:00003fe0       __IMPORT_DESCRIPTOR_libmex 0000000180019fe0     libmex:libmex.dll
 0002:00003ff4       __IMPORT_DESCRIPTOR_libfixedpoint 0000000180019ff4     libfixedpoint:libfixedpoint.dll
 0002:00004008       __IMPORT_DESCRIPTOR_libut  000000018001a008     libut:libut.dll
 0002:0000401c       __IMPORT_DESCRIPTOR_libemlrt 000000018001a01c     libemlrt:libemlrt.dll
 0002:00004030       __IMPORT_DESCRIPTOR_MSVCR100 000000018001a030     MSVCRT:MSVCR100.dll
 0002:00004044       __IMPORT_DESCRIPTOR_KERNEL32 000000018001a044     kernel32:KERNEL32.dll
 0002:00004058       __NULL_IMPORT_DESCRIPTOR   000000018001a058     libmx:libmx.dll
 0003:00000820       DYNAMIC_DIMENSION          000000018001b820     two_tanks_sfun_registry.obj
 0003:00001430       emlrtContextGlobal         000000018001c430     sfc_mex:sfc_mex.obj
 0003:00001470       __security_cookie          000000018001c470     MSVCRT:gs_cookie.obj
 0003:00001478       __security_cookie_complement 000000018001c478     MSVCRT:gs_cookie.obj
 0003:00001480       _fltused                   000000018001c480     MSVCRT:dllsupp.obj
 0003:00001490       __native_dllmain_reason    000000018001c490     MSVCRT:natstart.obj
 0003:00001494       __native_vcclrit_reason    000000018001c494     MSVCRT:natstart.obj
 0003:000026c0       emlrtRootTLSGlobal         000000018001d6c0     sfc_mex:sfc_mex.obj
 0003:00002c40       ?__type_info_root_node@@3U__type_info_node@@A 000000018001dc40     MSVCRT:tncleanup.obj
 0003:00002c50       _sfTime_                   000000018001dc50     <common>
 0003:00002c58       __native_startup_state     000000018001dc58     <common>
 0003:00002c60       __native_startup_lock      000000018001dc60     <common>
 0003:00002c68       __onexitend                000000018001dc68     <common>
 0003:00002c70       __onexitbegin              000000018001dc70     <common>
 0003:00002c78       __dyn_tls_init_callback    000000018001dc78     <common>

 entry point at        0001:00014580

 Static symbols

 0001:00001080       get_sim_state_c1_two_tanks 0000000180002080 f   c1_two_tanks.obj
 0001:000010d0       c1_emlrt_marshallOut       00000001800020d0 f   c1_two_tanks.obj
 0001:00001280       c1_b_emlrt_marshallOut     0000000180002280 f   c1_two_tanks.obj
 0001:00001300       c1_c_emlrt_marshallOut     0000000180002300 f   c1_two_tanks.obj
 0001:00001380       c1_d_emlrt_marshallOut     0000000180002380 f   c1_two_tanks.obj
 0001:00001400       sf_get_sim_state_info_c1_two_tanks 0000000180002400 f   c1_two_tanks.obj
 0001:000015e0       set_sim_state_c1_two_tanks 00000001800025e0 f   c1_two_tanks.obj
 0001:00001630       c1_emlrt_marshallIn        0000000180002630 f   c1_two_tanks.obj
 0001:000017e0       c1_b_emlrt_marshallIn      00000001800027e0 f   c1_two_tanks.obj
 0001:00001850       c1_c_emlrt_marshallIn      0000000180002850 f   c1_two_tanks.obj
 0001:000018e0       c1_d_emlrt_marshallIn      00000001800028e0 f   c1_two_tanks.obj
 0001:00001950       c1_e_emlrt_marshallIn      0000000180002950 f   c1_two_tanks.obj
 0001:00001a20       c1_f_emlrt_marshallIn      0000000180002a20 f   c1_two_tanks.obj
 0001:00001a80       c1_g_emlrt_marshallIn      0000000180002a80 f   c1_two_tanks.obj
 0001:00001b10       c1_h_emlrt_marshallIn      0000000180002b10 f   c1_two_tanks.obj
 0001:00001b90       c1_i_emlrt_marshallIn      0000000180002b90 f   c1_two_tanks.obj
 0001:00001c60       mdlProcessParameters_c1_two_tanks 0000000180002c60 f   c1_two_tanks.obj
 0001:00001d20       initialize_params_c1_two_tanks 0000000180002d20 f   c1_two_tanks.obj
 0001:00001d30       mdlSetWorkWidths_c1_two_tanks 0000000180002d30 f   c1_two_tanks.obj
 0001:00002190       sf_get_instance_specialization 0000000180003190 f   c1_two_tanks.obj
 0001:000021a0       mdlStart_c1_two_tanks      00000001800031a0 f   c1_two_tanks.obj
 0001:000023a0       init_dsm_address_info      00000001800033a0 f   c1_two_tanks.obj
 0001:000023b0       sf_opaque_initialize_c1_two_tanks 00000001800033b0 f   c1_two_tanks.obj
 0001:000023e0       initialize_c1_two_tanks    00000001800033e0 f   c1_two_tanks.obj
 0001:00002610       sf_opaque_enable_c1_two_tanks 0000000180003610 f   c1_two_tanks.obj
 0001:00002630       enable_c1_two_tanks        0000000180003630 f   c1_two_tanks.obj
 0001:00002660       sf_opaque_disable_c1_two_tanks 0000000180003660 f   c1_two_tanks.obj
 0001:00002680       disable_c1_two_tanks       0000000180003680 f   c1_two_tanks.obj
 0001:000026b0       sf_opaque_zeroCrossings_c1_two_tanks 00000001800036b0 f   c1_two_tanks.obj
 0001:000026d0       zeroCrossings_c1_two_tanks 00000001800036d0 f   c1_two_tanks.obj
 0001:00002800       sf_opaque_outputs_c1_two_tanks 0000000180003800 f   c1_two_tanks.obj
 0001:00002820       outputs_c1_two_tanks       0000000180003820 f   c1_two_tanks.obj
 0001:00002960       sf_opaque_derivatives_c1_two_tanks 0000000180003960 f   c1_two_tanks.obj
 0001:00002980       derivatives_c1_two_tanks   0000000180003980 f   c1_two_tanks.obj
 0001:00002a90       sf_opaque_gateway_c1_two_tanks 0000000180003a90 f   c1_two_tanks.obj
 0001:00002ab0       sf_c1_two_tanks            0000000180003ab0 f   c1_two_tanks.obj
 0001:00002d40       c1_set_sim_state_side_effects_c1_two_tanks 0000000180003d40 f   c1_two_tanks.obj
 0001:00002d70       sf_opaque_get_sim_state_c1_two_tanks 0000000180003d70 f   c1_two_tanks.obj
 0001:00002d90       sf_opaque_set_sim_state_c1_two_tanks 0000000180003d90 f   c1_two_tanks.obj
 0001:00002dc0       sf_opaque_terminate_c1_two_tanks 0000000180003dc0 f   c1_two_tanks.obj
 0001:00002e40       finalize_c1_two_tanks      0000000180003e40 f   c1_two_tanks.obj
 0001:00002e70       sf_opaque_init_subchart_simstructs 0000000180003e70 f   c1_two_tanks.obj
 0001:00002e90       initSimStructsc1_two_tanks 0000000180003e90 f   c1_two_tanks.obj
 0001:00002ea0       mdlRTW_c1_two_tanks        0000000180003ea0 f   c1_two_tanks.obj
 0001:00004db0       _ssFatalError              0000000180005db0 f   two_tanks_sfun_registry.obj
 0001:00007e60       ProcessMexSfunctionCmdLineCall 0000000180008e60 f   two_tanks_sfun_registry.obj
 0001:00007f70       mdlGetTimeOfNextVarHit     0000000180008f70 f   two_tanks_sfun_registry.obj
 0001:00007fc0       _ProcessMexSfunctionCmdLineCall 0000000180008fc0 f   two_tanks_sfun_registry.obj
 0001:00008710       _CreateSimStruct           0000000180009710 f   two_tanks_sfun_registry.obj
 0001:000088a0       _RegNumInputPortsCB        00000001800098a0 f   two_tanks_sfun_registry.obj
 0001:00008920       _RegNumOutputPortsCB       0000000180009920 f   two_tanks_sfun_registry.obj
 0001:00008a00       sf_machine_load_sfunction_ptrs 0000000180009a00 f   two_tanks_sfun_registry.obj
 0001:00008b10       get_machine_and_chart_file_number 0000000180009b10 f   sfc_mex:sfc_sf.obj
 0001:00008c00       get_sfun_block_specialization 0000000180009c00 f   sfc_mex:sfc_sf.obj
 0001:00008cb0       call_sf_machine_global_method_dispatcher 0000000180009cb0 f   sfc_mex:sfc_sf.obj
 0001:00008ee0       mdl_zeroCrossings_processing 0000000180009ee0 f   sfc_mex:sfc_sf.obj
 0001:00008fb0       mdl_derivatives_processing 0000000180009fb0 f   sfc_mex:sfc_sf.obj
 0001:00009260       mdl_outputs_continuous_legacy 000000018000a260 f   sfc_mex:sfc_sf.obj
 0001:000092e0       mdl_outputs_processing     000000018000a2e0 f   sfc_mex:sfc_sf.obj
 0001:00009550       mdl_enable_processing      000000018000a550 f   sfc_mex:sfc_sf.obj
 0001:00009620       mdl_disable_processing     000000018000a620 f   sfc_mex:sfc_sf.obj
 0001:0000a4a0       sf_call_output_fcn_enable_disable 000000018000b4a0 f   sfc_mex:sfc_sf.obj
 0001:0000a720       set_dwork_information_from_mx_array 000000018000b720 f   sfc_mex:sfc_sf.obj
 0001:0000afd0       ptr2mxStruct               000000018000bfd0 f   sfc_mex:sfc_sf.obj
 0001:0000b2e0       getThreadLocalStorage      000000018000c2e0 f   sfc_mex:sfc_mex.obj
 0001:0000b320       releaseThreadLocalStorage  000000018000c320 f   sfc_mex:sfc_mex.obj
 0001:0000b330       SNPRINTF_WRAPPER           000000018000c330 f   sfc_mex:sfc_mex.obj
 0001:0000b350       convert_dims_to_string     000000018000c350 f   sfc_mex:sfc_mex.obj
 0001:0000b570       is_real_T_equal_to_double  000000018000c570 f   sfc_mex:sfc_mex.obj
 0001:0000b590       is_real32_T_equal_to_double 000000018000c590 f   sfc_mex:sfc_mex.obj
 0001:0000b5a0       is_mxLogical_equal_to_double 000000018000c5a0 f   sfc_mex:sfc_mex.obj
 0001:0000b5c0       is_int8_T_equal_to_double  000000018000c5c0 f   sfc_mex:sfc_mex.obj
 0001:0000b5e0       is_uint8_T_equal_to_double 000000018000c5e0 f   sfc_mex:sfc_mex.obj
 0001:0000b600       is_int16_T_equal_to_double 000000018000c600 f   sfc_mex:sfc_mex.obj
 0001:0000b620       is_uint16_T_equal_to_double 000000018000c620 f   sfc_mex:sfc_mex.obj
 0001:0000b640       is_int32_T_equal_to_double 000000018000c640 f   sfc_mex:sfc_mex.obj
 0001:0000b660       is_uint32_T_equal_to_double 000000018000c660 f   sfc_mex:sfc_mex.obj
 0001:0000b680       is_char_T_equal_to_double  000000018000c680 f   sfc_mex:sfc_mex.obj
 0001:0000b6a0       sf_zero_numeric_value      000000018000c6a0 f   sfc_mex:sfc_mex.obj
 0001:0000b6d0       sf_error_append_debugger_context_if_available 000000018000c6d0 f   sfc_mex:sfc_mex.obj
 0001:0000b7b0       sf_mex_get_error_message_for_write 000000018000c7b0 f   sfc_mex:sfc_mex.obj
 0001:0000b7e0       replace_single_quotes_by_doubled_quotes 000000018000c7e0 f   sfc_mex:sfc_mex.obj
 0001:0000b9e0       sf_mex_get_formatted_error_string 000000018000c9e0 f   sfc_mex:sfc_mex.obj
 0001:0000bf10       sf_mex_destroy_array       000000018000cf10 f   sfc_mex:sfc_mex.obj
 0001:0000c340       sfrtAddSize                000000018000d340 f   sfc_mex:sfc_mex.obj
 0001:0000c3e0       sfrtGenSizeString          000000018000d3e0 f   sfc_mex:sfc_mex.obj
 0001:0000c4c0       sfIsProperVector           000000018000d4c0 f   sfc_mex:sfc_mex.obj
 0001:0000c4f0       sfIsRowVector              000000018000d4f0 f   sfc_mex:sfc_mex.obj
 0001:0000c630       sf_ExtractMessageId        000000018000d630 f   sfc_mex:sfc_mex.obj
 0001:0000c920       sf_mex_err                 000000018000d920 f   sfc_mex:sfc_mex.obj
 0001:0000c9a0       sf_error_dimension_out_of_bound 000000018000d9a0 f   sfc_mex:sfc_mex.obj
 0001:0000ca40       sf_mex_check_and_set_actual_dimensions 000000018000da40 f   sfc_mex:sfc_mex.obj
 0001:0000cdd0       sf_mex_check_complex       000000018000ddd0 f   sfc_mex:sfc_mex.obj
 0001:0000ce80       sf_mex_check_sparse        000000018000de80 f   sfc_mex:sfc_mex.obj
 0001:0000cf40       sf_mex_check_numerictype   000000018000df40 f   sfc_mex:sfc_mex.obj
 0001:0000d1e0       sf_mex_check_fimath        000000018000e1e0 f   sfc_mex:sfc_mex.obj
 0001:0000e0c0       size_mismatch_error        000000018000f0c0 f   sfc_mex:sfc_mex.obj
 0001:0000ec80       check_array_dimensions     000000018000fc80 f   sfc_mex:sfc_mex.obj
 0001:0000ecf0       check_input_mxarray        000000018000fcf0 f   sfc_mex:sfc_mex.obj
 0001:0000f5a0       sf_numeric_value_to_double 00000001800105a0 f   sfc_mex:sfc_mex.obj
 0001:0000f620       ml_generic_out_of_bounds_check 0000000180010620 f   sfc_mex:sfc_mex.obj
 0001:0000f800       ml_get_element_value_from_array 0000000180010800 f   sfc_mex:sfc_mex.obj
 0001:0000fc10       _ml_generic_castability_check 0000000180010c10 f   sfc_mex:sfc_mex.obj
 0001:00010a90       ml_generic_castability_check 0000000180011a90 f   sfc_mex:sfc_mex.obj
 0001:00010b30       ml_check_mx_array_for_single_castability 0000000180011b30 f   sfc_mex:sfc_mex.obj
 0001:00010bd0       ml_check_mx_array_for_logical_castability 0000000180011bd0 f   sfc_mex:sfc_mex.obj
 0001:00010c70       ml_check_mx_array_for_int8_castability 0000000180011c70 f   sfc_mex:sfc_mex.obj
 0001:00010d20       ml_check_mx_array_for_uint8_castability 0000000180011d20 f   sfc_mex:sfc_mex.obj
 0001:00010d80       ml_check_mx_array_for_int16_castability 0000000180011d80 f   sfc_mex:sfc_mex.obj
 0001:00010de0       ml_check_mx_array_for_uint16_castability 0000000180011de0 f   sfc_mex:sfc_mex.obj
 0001:00010e40       ml_check_mx_array_for_int32_castability 0000000180011e40 f   sfc_mex:sfc_mex.obj
 0001:00010ea0       ml_check_mx_array_for_uint32_castability 0000000180011ea0 f   sfc_mex:sfc_mex.obj
 0001:00010f00       ml_check_mx_array_for_int64_castability 0000000180011f00 f   sfc_mex:sfc_mex.obj
 0001:00010f60       ml_check_mx_array_for_uint64_castability 0000000180011f60 f   sfc_mex:sfc_mex.obj
 0001:00010fb0       ml_check_mx_array_for_castability 0000000180011fb0 f   sfc_mex:sfc_mex.obj
 0001:00011850       set_data_value             0000000180012850 f   sfc_mex:sfc_mex.obj
 0001:00011db0       get_next_element_address   0000000180012db0 f   sfc_mex:sfc_mex.obj
 0001:00011e80       sf_normalize_index         0000000180012e80 f   sfc_mex:sfc_mex.obj
 0001:000121f0       ml_array_index_bound_check 00000001800131f0 f   sfc_mex:sfc_mex.obj
 0001:00012d60       mx_value                   0000000180013d60 f   sfc_mex:sfc_mex.obj
 0001:00012db0       sf_create_numeric_array    0000000180013db0 f   sfc_mex:sfc_mex.obj
 0001:00012e50       sf_mex_assign_to_mx_array  0000000180013e50 f   sfc_mex:sfc_mex.obj
 0001:00013130       assign_from_mx_array       0000000180014130 f   sfc_mex:sfc_mex.obj
 0001:00013880       sf_mex_import_v            0000000180014880 f   sfc_mex:sfc_mex.obj
 0001:00014188       pre_c_init                 0000000180015188 f   MSVCRT:crtdll.obj
 0001:00014444       __DllMainCRTStartup        0000000180015444 f   MSVCRT:crtdll.obj
 0001:00014b30       __DllMainCRTStartup$filt$0 0000000180015b30 f   MSVCRT:crtdll.obj
 0001:00014b60       __DllMainCRTStartup$fin$1  0000000180015b60 f   MSVCRT:crtdll.obj
 0001:00014b7a       _onexit$fin$0              0000000180015b7a f   MSVCRT:atonexit.obj
 0001:00014ba0       _IsNonwritableInCurrentImage$filt$0 0000000180015ba0 f   MSVCRT:pesect.obj
